

Microchip MPLAB XC8 Assembler V2.46 build 20240104201356 
                                                                                               Tue May 12 13:43:44 2026

Microchip MPLAB XC8 C Compiler v2.46 (Free license) build 20240104201356 Og1 
     1                           	processor	16F1936
     2                           	pagewidth 120
     3                           	opt	flic
     4                           	psect	idataBANK1,global,class=CODE,delta=2,noexec
     5                           	psect	stringtext1,global,class=STRCODE,delta=2,noexec
     6                           	psect	cinit,global,class=CODE,merge=1,delta=2
     7                           	psect	bssCOMMON,global,class=COMMON,space=1,delta=1,noexec
     8                           	psect	bssBANK0,global,class=BANK0,space=1,delta=1,noexec
     9                           	psect	dataBANK1,global,class=BANK1,space=1,delta=1,noexec
    10                           	psect	inittext,global,class=CODE,delta=2
    11                           	psect	clrtext,global,class=CODE,delta=2
    12                           	psect	cstackCOMMON,global,class=COMMON,space=1,delta=1,noexec
    13                           	psect	cstackBANK0,global,class=BANK0,space=1,delta=1,noexec
    14                           	psect	maintext,global,class=CODE,merge=1,split=1,delta=2
    15                           	psect	text1,local,class=CODE,merge=1,delta=2
    16                           	psect	text2,local,class=CODE,merge=1,delta=2
    17                           	psect	text3,local,class=CODE,merge=1,delta=2
    18                           	psect	text4,local,class=CODE,merge=1,delta=2
    19                           	psect	text5,local,class=CODE,merge=1,delta=2
    20                           	psect	text6,local,class=CODE,merge=1,delta=2
    21                           	psect	text7,local,class=CODE,merge=1,delta=2
    22                           	psect	text8,local,class=CODE,merge=1,delta=2
    23                           	psect	text9,local,class=CODE,merge=1,delta=2
    24                           	psect	text10,local,class=CODE,merge=1,delta=2
    25                           	psect	text11,local,class=CODE,merge=1,delta=2
    26                           	psect	intentry,global,class=CODE,delta=2
    27                           	psect	text13,local,class=CODE,merge=1,delta=2
    28                           	psect	text14,local,class=CODE,merge=1,delta=2
    29                           	psect	text15,local,class=CODE,merge=1,delta=2
    30                           	psect	text16,local,class=CODE,merge=1,delta=2
    31                           	psect	text17,local,class=CODE,merge=1,delta=2
    32                           	psect	text18,local,class=CODE,merge=1,delta=2
    33                           	psect	idloc,global,abs,ovrld,class=IDLOC,space=5,delta=2,noexec
    34                           	psect	config,global,abs,ovrld,class=CONFIG,space=4,delta=2,noexec
    35                           	dabs	1,0x7E,2
    36     0000                     
    37                           ; Version 2.20
    38                           ; Generated 12/02/2020 GMT
    39                           ; 
    40                           ; Copyright © 2020, Microchip Technology Inc. and its subsidiaries ("Microchip")
    41                           ; All rights reserved.
    42                           ; 
    43                           ; This software is developed by Microchip Technology Inc. and its subsidiaries ("Microch
      +                          ip").
    44                           ; 
    45                           ; Redistribution and use in source and binary forms, with or without modification, are
    46                           ; permitted provided that the following conditions are met:
    47                           ; 
    48                           ;     1. Redistributions of source code must retain the above copyright notice, this lis
      +                          t of
    49                           ;        conditions and the following disclaimer.
    50                           ; 
    51                           ;     2. Redistributions in binary form must reproduce the above copyright notice, this 
      +                          list
    52                           ;        of conditions and the following disclaimer in the documentation and/or other
    53                           ;        materials provided with the distribution.
    54                           ; 
    55                           ;     3. Microchip's name may not be used to endorse or promote products derived from th
      +                          is
    56                           ;        software without specific prior written permission.
    57                           ; 
    58                           ; THIS SOFTWARE IS PROVIDED BY MICROCHIP "AS IS" AND ANY EXPRESS OR IMPLIED WARRANTIES,
    59                           ; INCLUDING, BUT NOT LIMITED TO, THE IMPLIED WARRANTIES OF MERCHANTABILITY AND FITNESS F
      +                          OR
    60                           ; PURPOSE ARE DISCLAIMED.  IN NO EVENT SHALL MICROCHIP BE LIABLE FOR ANY DIRECT, INDIREC
      +                          T,
    61                           ; INCIDENTAL, SPECIAL, EXEMPLARY, OR CONSEQUENTIAL DAMAGES (INCLUDING BUT NOT LIMITED TO
    62                           ; PROCUREMENT OF SUBSTITUTE GOODS OR SERVICES; LOSS OF USE, DATA OR PROFITS; OR BUSINESS
    63                           ; INTERRUPTION) HOWSOEVER CAUSED AND ON ANY THEORY OF LIABILITY, WHETHER IN CONTRACT, ST
      +                          RICT
    64                           ; LIABILITY, OR TORT (INCLUDING NEGLIGENCE OR OTHERWISE) ARISING IN ANY WAY OUT OF THE U
      +                          SE OF
    65                           ; THIS SOFTWARE, EVEN IF ADVISED OF THE POSSIBILITY OF SUCH DAMAGE.
    66                           ; 
    67                           ; 
    68                           ; Code-generator required, PIC16F1936 Definitions
    69                           ; 
    70                           ; SFR Addresses
    71     0000                     	;# 
    72     0001                     	;# 
    73     0002                     	;# 
    74     0003                     	;# 
    75     0004                     	;# 
    76     0005                     	;# 
    77     0006                     	;# 
    78     0007                     	;# 
    79     0008                     	;# 
    80     0009                     	;# 
    81     000A                     	;# 
    82     000B                     	;# 
    83     000C                     	;# 
    84     000D                     	;# 
    85     000E                     	;# 
    86     0010                     	;# 
    87     0011                     	;# 
    88     0012                     	;# 
    89     0013                     	;# 
    90     0015                     	;# 
    91     0016                     	;# 
    92     0016                     	;# 
    93     0017                     	;# 
    94     0018                     	;# 
    95     0019                     	;# 
    96     001A                     	;# 
    97     001B                     	;# 
    98     001C                     	;# 
    99     001E                     	;# 
   100     001F                     	;# 
   101     008C                     	;# 
   102     008D                     	;# 
   103     008E                     	;# 
   104     0090                     	;# 
   105     0091                     	;# 
   106     0092                     	;# 
   107     0093                     	;# 
   108     0095                     	;# 
   109     0096                     	;# 
   110     0097                     	;# 
   111     0098                     	;# 
   112     0099                     	;# 
   113     009A                     	;# 
   114     009B                     	;# 
   115     009B                     	;# 
   116     009C                     	;# 
   117     009D                     	;# 
   118     009E                     	;# 
   119     010C                     	;# 
   120     010D                     	;# 
   121     010E                     	;# 
   122     0110                     	;# 
   123     0111                     	;# 
   124     0112                     	;# 
   125     0113                     	;# 
   126     0114                     	;# 
   127     0115                     	;# 
   128     0116                     	;# 
   129     0117                     	;# 
   130     0118                     	;# 
   131     0119                     	;# 
   132     011A                     	;# 
   133     011B                     	;# 
   134     011D                     	;# 
   135     018C                     	;# 
   136     018D                     	;# 
   137     0191                     	;# 
   138     0191                     	;# 
   139     0192                     	;# 
   140     0193                     	;# 
   141     0193                     	;# 
   142     0193                     	;# 
   143     0194                     	;# 
   144     0195                     	;# 
   145     0196                     	;# 
   146     0199                     	;# 
   147     019A                     	;# 
   148     019B                     	;# 
   149     019B                     	;# 
   150     019B                     	;# 
   151     019B                     	;# 
   152     019C                     	;# 
   153     019C                     	;# 
   154     019D                     	;# 
   155     019E                     	;# 
   156     019F                     	;# 
   157     020D                     	;# 
   158     0210                     	;# 
   159     0211                     	;# 
   160     0212                     	;# 
   161     0213                     	;# 
   162     0214                     	;# 
   163     0215                     	;# 
   164     0215                     	;# 
   165     0216                     	;# 
   166     0217                     	;# 
   167     0291                     	;# 
   168     0291                     	;# 
   169     0292                     	;# 
   170     0293                     	;# 
   171     0294                     	;# 
   172     0295                     	;# 
   173     0295                     	;# 
   174     0296                     	;# 
   175     0298                     	;# 
   176     0298                     	;# 
   177     0299                     	;# 
   178     029A                     	;# 
   179     029B                     	;# 
   180     029C                     	;# 
   181     029C                     	;# 
   182     029D                     	;# 
   183     029E                     	;# 
   184     029F                     	;# 
   185     0311                     	;# 
   186     0311                     	;# 
   187     0312                     	;# 
   188     0313                     	;# 
   189     0314                     	;# 
   190     0315                     	;# 
   191     0315                     	;# 
   192     0316                     	;# 
   193     0318                     	;# 
   194     0318                     	;# 
   195     0319                     	;# 
   196     031A                     	;# 
   197     031C                     	;# 
   198     031C                     	;# 
   199     031D                     	;# 
   200     031E                     	;# 
   201     0394                     	;# 
   202     0395                     	;# 
   203     0396                     	;# 
   204     0415                     	;# 
   205     0416                     	;# 
   206     0417                     	;# 
   207     041C                     	;# 
   208     041D                     	;# 
   209     041E                     	;# 
   210     0791                     	;# 
   211     0792                     	;# 
   212     0793                     	;# 
   213     0794                     	;# 
   214     0795                     	;# 
   215     0798                     	;# 
   216     0799                     	;# 
   217     07A0                     	;# 
   218     07A1                     	;# 
   219     07A3                     	;# 
   220     07A4                     	;# 
   221     07A6                     	;# 
   222     07A7                     	;# 
   223     07A9                     	;# 
   224     07AA                     	;# 
   225     0FE4                     	;# 
   226     0FE5                     	;# 
   227     0FE6                     	;# 
   228     0FE7                     	;# 
   229     0FE8                     	;# 
   230     0FE9                     	;# 
   231     0FEA                     	;# 
   232     0FEB                     	;# 
   233     0FED                     	;# 
   234     0FEE                     	;# 
   235     0FEF                     	;# 
   236     0000                     	;# 
   237     0001                     	;# 
   238     0002                     	;# 
   239     0003                     	;# 
   240     0004                     	;# 
   241     0005                     	;# 
   242     0006                     	;# 
   243     0007                     	;# 
   244     0008                     	;# 
   245     0009                     	;# 
   246     000A                     	;# 
   247     000B                     	;# 
   248     000C                     	;# 
   249     000D                     	;# 
   250     000E                     	;# 
   251     0010                     	;# 
   252     0011                     	;# 
   253     0012                     	;# 
   254     0013                     	;# 
   255     0015                     	;# 
   256     0016                     	;# 
   257     0016                     	;# 
   258     0017                     	;# 
   259     0018                     	;# 
   260     0019                     	;# 
   261     001A                     	;# 
   262     001B                     	;# 
   263     001C                     	;# 
   264     001E                     	;# 
   265     001F                     	;# 
   266     008C                     	;# 
   267     008D                     	;# 
   268     008E                     	;# 
   269     0090                     	;# 
   270     0091                     	;# 
   271     0092                     	;# 
   272     0093                     	;# 
   273     0095                     	;# 
   274     0096                     	;# 
   275     0097                     	;# 
   276     0098                     	;# 
   277     0099                     	;# 
   278     009A                     	;# 
   279     009B                     	;# 
   280     009B                     	;# 
   281     009C                     	;# 
   282     009D                     	;# 
   283     009E                     	;# 
   284     010C                     	;# 
   285     010D                     	;# 
   286     010E                     	;# 
   287     0110                     	;# 
   288     0111                     	;# 
   289     0112                     	;# 
   290     0113                     	;# 
   291     0114                     	;# 
   292     0115                     	;# 
   293     0116                     	;# 
   294     0117                     	;# 
   295     0118                     	;# 
   296     0119                     	;# 
   297     011A                     	;# 
   298     011B                     	;# 
   299     011D                     	;# 
   300     018C                     	;# 
   301     018D                     	;# 
   302     0191                     	;# 
   303     0191                     	;# 
   304     0192                     	;# 
   305     0193                     	;# 
   306     0193                     	;# 
   307     0193                     	;# 
   308     0194                     	;# 
   309     0195                     	;# 
   310     0196                     	;# 
   311     0199                     	;# 
   312     019A                     	;# 
   313     019B                     	;# 
   314     019B                     	;# 
   315     019B                     	;# 
   316     019B                     	;# 
   317     019C                     	;# 
   318     019C                     	;# 
   319     019D                     	;# 
   320     019E                     	;# 
   321     019F                     	;# 
   322     020D                     	;# 
   323     0210                     	;# 
   324     0211                     	;# 
   325     0212                     	;# 
   326     0213                     	;# 
   327     0214                     	;# 
   328     0215                     	;# 
   329     0215                     	;# 
   330     0216                     	;# 
   331     0217                     	;# 
   332     0291                     	;# 
   333     0291                     	;# 
   334     0292                     	;# 
   335     0293                     	;# 
   336     0294                     	;# 
   337     0295                     	;# 
   338     0295                     	;# 
   339     0296                     	;# 
   340     0298                     	;# 
   341     0298                     	;# 
   342     0299                     	;# 
   343     029A                     	;# 
   344     029B                     	;# 
   345     029C                     	;# 
   346     029C                     	;# 
   347     029D                     	;# 
   348     029E                     	;# 
   349     029F                     	;# 
   350     0311                     	;# 
   351     0311                     	;# 
   352     0312                     	;# 
   353     0313                     	;# 
   354     0314                     	;# 
   355     0315                     	;# 
   356     0315                     	;# 
   357     0316                     	;# 
   358     0318                     	;# 
   359     0318                     	;# 
   360     0319                     	;# 
   361     031A                     	;# 
   362     031C                     	;# 
   363     031C                     	;# 
   364     031D                     	;# 
   365     031E                     	;# 
   366     0394                     	;# 
   367     0395                     	;# 
   368     0396                     	;# 
   369     0415                     	;# 
   370     0416                     	;# 
   371     0417                     	;# 
   372     041C                     	;# 
   373     041D                     	;# 
   374     041E                     	;# 
   375     0791                     	;# 
   376     0792                     	;# 
   377     0793                     	;# 
   378     0794                     	;# 
   379     0795                     	;# 
   380     0798                     	;# 
   381     0799                     	;# 
   382     07A0                     	;# 
   383     07A1                     	;# 
   384     07A3                     	;# 
   385     07A4                     	;# 
   386     07A6                     	;# 
   387     07A7                     	;# 
   388     07A9                     	;# 
   389     07AA                     	;# 
   390     0FE4                     	;# 
   391     0FE5                     	;# 
   392     0FE6                     	;# 
   393     0FE7                     	;# 
   394     0FE8                     	;# 
   395     0FE9                     	;# 
   396     0FEA                     	;# 
   397     0FEB                     	;# 
   398     0FED                     	;# 
   399     0FEE                     	;# 
   400     0FEF                     	;# 
   401     0000                     	;# 
   402     0001                     	;# 
   403     0002                     	;# 
   404     0003                     	;# 
   405     0004                     	;# 
   406     0005                     	;# 
   407     0006                     	;# 
   408     0007                     	;# 
   409     0008                     	;# 
   410     0009                     	;# 
   411     000A                     	;# 
   412     000B                     	;# 
   413     000C                     	;# 
   414     000D                     	;# 
   415     000E                     	;# 
   416     0010                     	;# 
   417     0011                     	;# 
   418     0012                     	;# 
   419     0013                     	;# 
   420     0015                     	;# 
   421     0016                     	;# 
   422     0016                     	;# 
   423     0017                     	;# 
   424     0018                     	;# 
   425     0019                     	;# 
   426     001A                     	;# 
   427     001B                     	;# 
   428     001C                     	;# 
   429     001E                     	;# 
   430     001F                     	;# 
   431     008C                     	;# 
   432     008D                     	;# 
   433     008E                     	;# 
   434     0090                     	;# 
   435     0091                     	;# 
   436     0092                     	;# 
   437     0093                     	;# 
   438     0095                     	;# 
   439     0096                     	;# 
   440     0097                     	;# 
   441     0098                     	;# 
   442     0099                     	;# 
   443     009A                     	;# 
   444     009B                     	;# 
   445     009B                     	;# 
   446     009C                     	;# 
   447     009D                     	;# 
   448     009E                     	;# 
   449     010C                     	;# 
   450     010D                     	;# 
   451     010E                     	;# 
   452     0110                     	;# 
   453     0111                     	;# 
   454     0112                     	;# 
   455     0113                     	;# 
   456     0114                     	;# 
   457     0115                     	;# 
   458     0116                     	;# 
   459     0117                     	;# 
   460     0118                     	;# 
   461     0119                     	;# 
   462     011A                     	;# 
   463     011B                     	;# 
   464     011D                     	;# 
   465     018C                     	;# 
   466     018D                     	;# 
   467     0191                     	;# 
   468     0191                     	;# 
   469     0192                     	;# 
   470     0193                     	;# 
   471     0193                     	;# 
   472     0193                     	;# 
   473     0194                     	;# 
   474     0195                     	;# 
   475     0196                     	;# 
   476     0199                     	;# 
   477     019A                     	;# 
   478     019B                     	;# 
   479     019B                     	;# 
   480     019B                     	;# 
   481     019B                     	;# 
   482     019C                     	;# 
   483     019C                     	;# 
   484     019D                     	;# 
   485     019E                     	;# 
   486     019F                     	;# 
   487     020D                     	;# 
   488     0210                     	;# 
   489     0211                     	;# 
   490     0212                     	;# 
   491     0213                     	;# 
   492     0214                     	;# 
   493     0215                     	;# 
   494     0215                     	;# 
   495     0216                     	;# 
   496     0217                     	;# 
   497     0291                     	;# 
   498     0291                     	;# 
   499     0292                     	;# 
   500     0293                     	;# 
   501     0294                     	;# 
   502     0295                     	;# 
   503     0295                     	;# 
   504     0296                     	;# 
   505     0298                     	;# 
   506     0298                     	;# 
   507     0299                     	;# 
   508     029A                     	;# 
   509     029B                     	;# 
   510     029C                     	;# 
   511     029C                     	;# 
   512     029D                     	;# 
   513     029E                     	;# 
   514     029F                     	;# 
   515     0311                     	;# 
   516     0311                     	;# 
   517     0312                     	;# 
   518     0313                     	;# 
   519     0314                     	;# 
   520     0315                     	;# 
   521     0315                     	;# 
   522     0316                     	;# 
   523     0318                     	;# 
   524     0318                     	;# 
   525     0319                     	;# 
   526     031A                     	;# 
   527     031C                     	;# 
   528     031C                     	;# 
   529     031D                     	;# 
   530     031E                     	;# 
   531     0394                     	;# 
   532     0395                     	;# 
   533     0396                     	;# 
   534     0415                     	;# 
   535     0416                     	;# 
   536     0417                     	;# 
   537     041C                     	;# 
   538     041D                     	;# 
   539     041E                     	;# 
   540     0791                     	;# 
   541     0792                     	;# 
   542     0793                     	;# 
   543     0794                     	;# 
   544     0795                     	;# 
   545     0798                     	;# 
   546     0799                     	;# 
   547     07A0                     	;# 
   548     07A1                     	;# 
   549     07A3                     	;# 
   550     07A4                     	;# 
   551     07A6                     	;# 
   552     07A7                     	;# 
   553     07A9                     	;# 
   554     07AA                     	;# 
   555     0FE4                     	;# 
   556     0FE5                     	;# 
   557     0FE6                     	;# 
   558     0FE7                     	;# 
   559     0FE8                     	;# 
   560     0FE9                     	;# 
   561     0FEA                     	;# 
   562     0FEB                     	;# 
   563     0FED                     	;# 
   564     0FEE                     	;# 
   565     0FEF                     	;# 
   566     0000                     	;# 
   567     0001                     	;# 
   568     0002                     	;# 
   569     0003                     	;# 
   570     0004                     	;# 
   571     0005                     	;# 
   572     0006                     	;# 
   573     0007                     	;# 
   574     0008                     	;# 
   575     0009                     	;# 
   576     000A                     	;# 
   577     000B                     	;# 
   578     000C                     	;# 
   579     000D                     	;# 
   580     000E                     	;# 
   581     0010                     	;# 
   582     0011                     	;# 
   583     0012                     	;# 
   584     0013                     	;# 
   585     0015                     	;# 
   586     0016                     	;# 
   587     0016                     	;# 
   588     0017                     	;# 
   589     0018                     	;# 
   590     0019                     	;# 
   591     001A                     	;# 
   592     001B                     	;# 
   593     001C                     	;# 
   594     001E                     	;# 
   595     001F                     	;# 
   596     008C                     	;# 
   597     008D                     	;# 
   598     008E                     	;# 
   599     0090                     	;# 
   600     0091                     	;# 
   601     0092                     	;# 
   602     0093                     	;# 
   603     0095                     	;# 
   604     0096                     	;# 
   605     0097                     	;# 
   606     0098                     	;# 
   607     0099                     	;# 
   608     009A                     	;# 
   609     009B                     	;# 
   610     009B                     	;# 
   611     009C                     	;# 
   612     009D                     	;# 
   613     009E                     	;# 
   614     010C                     	;# 
   615     010D                     	;# 
   616     010E                     	;# 
   617     0110                     	;# 
   618     0111                     	;# 
   619     0112                     	;# 
   620     0113                     	;# 
   621     0114                     	;# 
   622     0115                     	;# 
   623     0116                     	;# 
   624     0117                     	;# 
   625     0118                     	;# 
   626     0119                     	;# 
   627     011A                     	;# 
   628     011B                     	;# 
   629     011D                     	;# 
   630     018C                     	;# 
   631     018D                     	;# 
   632     0191                     	;# 
   633     0191                     	;# 
   634     0192                     	;# 
   635     0193                     	;# 
   636     0193                     	;# 
   637     0193                     	;# 
   638     0194                     	;# 
   639     0195                     	;# 
   640     0196                     	;# 
   641     0199                     	;# 
   642     019A                     	;# 
   643     019B                     	;# 
   644     019B                     	;# 
   645     019B                     	;# 
   646     019B                     	;# 
   647     019C                     	;# 
   648     019C                     	;# 
   649     019D                     	;# 
   650     019E                     	;# 
   651     019F                     	;# 
   652     020D                     	;# 
   653     0210                     	;# 
   654     0211                     	;# 
   655     0212                     	;# 
   656     0213                     	;# 
   657     0214                     	;# 
   658     0215                     	;# 
   659     0215                     	;# 
   660     0216                     	;# 
   661     0217                     	;# 
   662     0291                     	;# 
   663     0291                     	;# 
   664     0292                     	;# 
   665     0293                     	;# 
   666     0294                     	;# 
   667     0295                     	;# 
   668     0295                     	;# 
   669     0296                     	;# 
   670     0298                     	;# 
   671     0298                     	;# 
   672     0299                     	;# 
   673     029A                     	;# 
   674     029B                     	;# 
   675     029C                     	;# 
   676     029C                     	;# 
   677     029D                     	;# 
   678     029E                     	;# 
   679     029F                     	;# 
   680     0311                     	;# 
   681     0311                     	;# 
   682     0312                     	;# 
   683     0313                     	;# 
   684     0314                     	;# 
   685     0315                     	;# 
   686     0315                     	;# 
   687     0316                     	;# 
   688     0318                     	;# 
   689     0318                     	;# 
   690     0319                     	;# 
   691     031A                     	;# 
   692     031C                     	;# 
   693     031C                     	;# 
   694     031D                     	;# 
   695     031E                     	;# 
   696     0394                     	;# 
   697     0395                     	;# 
   698     0396                     	;# 
   699     0415                     	;# 
   700     0416                     	;# 
   701     0417                     	;# 
   702     041C                     	;# 
   703     041D                     	;# 
   704     041E                     	;# 
   705     0791                     	;# 
   706     0792                     	;# 
   707     0793                     	;# 
   708     0794                     	;# 
   709     0795                     	;# 
   710     0798                     	;# 
   711     0799                     	;# 
   712     07A0                     	;# 
   713     07A1                     	;# 
   714     07A3                     	;# 
   715     07A4                     	;# 
   716     07A6                     	;# 
   717     07A7                     	;# 
   718     07A9                     	;# 
   719     07AA                     	;# 
   720     0FE4                     	;# 
   721     0FE5                     	;# 
   722     0FE6                     	;# 
   723     0FE7                     	;# 
   724     0FE8                     	;# 
   725     0FE9                     	;# 
   726     0FEA                     	;# 
   727     0FEB                     	;# 
   728     0FED                     	;# 
   729     0FEE                     	;# 
   730     0FEF                     	;# 
   731     0000                     	;# 
   732     0001                     	;# 
   733     0002                     	;# 
   734     0003                     	;# 
   735     0004                     	;# 
   736     0005                     	;# 
   737     0006                     	;# 
   738     0007                     	;# 
   739     0008                     	;# 
   740     0009                     	;# 
   741     000A                     	;# 
   742     000B                     	;# 
   743     000C                     	;# 
   744     000D                     	;# 
   745     000E                     	;# 
   746     0010                     	;# 
   747     0011                     	;# 
   748     0012                     	;# 
   749     0013                     	;# 
   750     0015                     	;# 
   751     0016                     	;# 
   752     0016                     	;# 
   753     0017                     	;# 
   754     0018                     	;# 
   755     0019                     	;# 
   756     001A                     	;# 
   757     001B                     	;# 
   758     001C                     	;# 
   759     001E                     	;# 
   760     001F                     	;# 
   761     008C                     	;# 
   762     008D                     	;# 
   763     008E                     	;# 
   764     0090                     	;# 
   765     0091                     	;# 
   766     0092                     	;# 
   767     0093                     	;# 
   768     0095                     	;# 
   769     0096                     	;# 
   770     0097                     	;# 
   771     0098                     	;# 
   772     0099                     	;# 
   773     009A                     	;# 
   774     009B                     	;# 
   775     009B                     	;# 
   776     009C                     	;# 
   777     009D                     	;# 
   778     009E                     	;# 
   779     010C                     	;# 
   780     010D                     	;# 
   781     010E                     	;# 
   782     0110                     	;# 
   783     0111                     	;# 
   784     0112                     	;# 
   785     0113                     	;# 
   786     0114                     	;# 
   787     0115                     	;# 
   788     0116                     	;# 
   789     0117                     	;# 
   790     0118                     	;# 
   791     0119                     	;# 
   792     011A                     	;# 
   793     011B                     	;# 
   794     011D                     	;# 
   795     018C                     	;# 
   796     018D                     	;# 
   797     0191                     	;# 
   798     0191                     	;# 
   799     0192                     	;# 
   800     0193                     	;# 
   801     0193                     	;# 
   802     0193                     	;# 
   803     0194                     	;# 
   804     0195                     	;# 
   805     0196                     	;# 
   806     0199                     	;# 
   807     019A                     	;# 
   808     019B                     	;# 
   809     019B                     	;# 
   810     019B                     	;# 
   811     019B                     	;# 
   812     019C                     	;# 
   813     019C                     	;# 
   814     019D                     	;# 
   815     019E                     	;# 
   816     019F                     	;# 
   817     020D                     	;# 
   818     0210                     	;# 
   819     0211                     	;# 
   820     0212                     	;# 
   821     0213                     	;# 
   822     0214                     	;# 
   823     0215                     	;# 
   824     0215                     	;# 
   825     0216                     	;# 
   826     0217                     	;# 
   827     0291                     	;# 
   828     0291                     	;# 
   829     0292                     	;# 
   830     0293                     	;# 
   831     0294                     	;# 
   832     0295                     	;# 
   833     0295                     	;# 
   834     0296                     	;# 
   835     0298                     	;# 
   836     0298                     	;# 
   837     0299                     	;# 
   838     029A                     	;# 
   839     029B                     	;# 
   840     029C                     	;# 
   841     029C                     	;# 
   842     029D                     	;# 
   843     029E                     	;# 
   844     029F                     	;# 
   845     0311                     	;# 
   846     0311                     	;# 
   847     0312                     	;# 
   848     0313                     	;# 
   849     0314                     	;# 
   850     0315                     	;# 
   851     0315                     	;# 
   852     0316                     	;# 
   853     0318                     	;# 
   854     0318                     	;# 
   855     0319                     	;# 
   856     031A                     	;# 
   857     031C                     	;# 
   858     031C                     	;# 
   859     031D                     	;# 
   860     031E                     	;# 
   861     0394                     	;# 
   862     0395                     	;# 
   863     0396                     	;# 
   864     0415                     	;# 
   865     0416                     	;# 
   866     0417                     	;# 
   867     041C                     	;# 
   868     041D                     	;# 
   869     041E                     	;# 
   870     0791                     	;# 
   871     0792                     	;# 
   872     0793                     	;# 
   873     0794                     	;# 
   874     0795                     	;# 
   875     0798                     	;# 
   876     0799                     	;# 
   877     07A0                     	;# 
   878     07A1                     	;# 
   879     07A3                     	;# 
   880     07A4                     	;# 
   881     07A6                     	;# 
   882     07A7                     	;# 
   883     07A9                     	;# 
   884     07AA                     	;# 
   885     0FE4                     	;# 
   886     0FE5                     	;# 
   887     0FE6                     	;# 
   888     0FE7                     	;# 
   889     0FE8                     	;# 
   890     0FE9                     	;# 
   891     0FEA                     	;# 
   892     0FEB                     	;# 
   893     0FED                     	;# 
   894     0FEE                     	;# 
   895     0FEF                     	;# 
   896     0000                     	;# 
   897     0001                     	;# 
   898     0002                     	;# 
   899     0003                     	;# 
   900     0004                     	;# 
   901     0005                     	;# 
   902     0006                     	;# 
   903     0007                     	;# 
   904     0008                     	;# 
   905     0009                     	;# 
   906     000A                     	;# 
   907     000B                     	;# 
   908     000C                     	;# 
   909     000D                     	;# 
   910     000E                     	;# 
   911     0010                     	;# 
   912     0011                     	;# 
   913     0012                     	;# 
   914     0013                     	;# 
   915     0015                     	;# 
   916     0016                     	;# 
   917     0016                     	;# 
   918     0017                     	;# 
   919     0018                     	;# 
   920     0019                     	;# 
   921     001A                     	;# 
   922     001B                     	;# 
   923     001C                     	;# 
   924     001E                     	;# 
   925     001F                     	;# 
   926     008C                     	;# 
   927     008D                     	;# 
   928     008E                     	;# 
   929     0090                     	;# 
   930     0091                     	;# 
   931     0092                     	;# 
   932     0093                     	;# 
   933     0095                     	;# 
   934     0096                     	;# 
   935     0097                     	;# 
   936     0098                     	;# 
   937     0099                     	;# 
   938     009A                     	;# 
   939     009B                     	;# 
   940     009B                     	;# 
   941     009C                     	;# 
   942     009D                     	;# 
   943     009E                     	;# 
   944     010C                     	;# 
   945     010D                     	;# 
   946     010E                     	;# 
   947     0110                     	;# 
   948     0111                     	;# 
   949     0112                     	;# 
   950     0113                     	;# 
   951     0114                     	;# 
   952     0115                     	;# 
   953     0116                     	;# 
   954     0117                     	;# 
   955     0118                     	;# 
   956     0119                     	;# 
   957     011A                     	;# 
   958     011B                     	;# 
   959     011D                     	;# 
   960     018C                     	;# 
   961     018D                     	;# 
   962     0191                     	;# 
   963     0191                     	;# 
   964     0192                     	;# 
   965     0193                     	;# 
   966     0193                     	;# 
   967     0193                     	;# 
   968     0194                     	;# 
   969     0195                     	;# 
   970     0196                     	;# 
   971     0199                     	;# 
   972     019A                     	;# 
   973     019B                     	;# 
   974     019B                     	;# 
   975     019B                     	;# 
   976     019B                     	;# 
   977     019C                     	;# 
   978     019C                     	;# 
   979     019D                     	;# 
   980     019E                     	;# 
   981     019F                     	;# 
   982     020D                     	;# 
   983     0210                     	;# 
   984     0211                     	;# 
   985     0212                     	;# 
   986     0213                     	;# 
   987     0214                     	;# 
   988     0215                     	;# 
   989     0215                     	;# 
   990     0216                     	;# 
   991     0217                     	;# 
   992     0291                     	;# 
   993     0291                     	;# 
   994     0292                     	;# 
   995     0293                     	;# 
   996     0294                     	;# 
   997     0295                     	;# 
   998     0295                     	;# 
   999     0296                     	;# 
  1000     0298                     	;# 
  1001     0298                     	;# 
  1002     0299                     	;# 
  1003     029A                     	;# 
  1004     029B                     	;# 
  1005     029C                     	;# 
  1006     029C                     	;# 
  1007     029D                     	;# 
  1008     029E                     	;# 
  1009     029F                     	;# 
  1010     0311                     	;# 
  1011     0311                     	;# 
  1012     0312                     	;# 
  1013     0313                     	;# 
  1014     0314                     	;# 
  1015     0315                     	;# 
  1016     0315                     	;# 
  1017     0316                     	;# 
  1018     0318                     	;# 
  1019     0318                     	;# 
  1020     0319                     	;# 
  1021     031A                     	;# 
  1022     031C                     	;# 
  1023     031C                     	;# 
  1024     031D                     	;# 
  1025     031E                     	;# 
  1026     0394                     	;# 
  1027     0395                     	;# 
  1028     0396                     	;# 
  1029     0415                     	;# 
  1030     0416                     	;# 
  1031     0417                     	;# 
  1032     041C                     	;# 
  1033     041D                     	;# 
  1034     041E                     	;# 
  1035     0791                     	;# 
  1036     0792                     	;# 
  1037     0793                     	;# 
  1038     0794                     	;# 
  1039     0795                     	;# 
  1040     0798                     	;# 
  1041     0799                     	;# 
  1042     07A0                     	;# 
  1043     07A1                     	;# 
  1044     07A3                     	;# 
  1045     07A4                     	;# 
  1046     07A6                     	;# 
  1047     07A7                     	;# 
  1048     07A9                     	;# 
  1049     07AA                     	;# 
  1050     0FE4                     	;# 
  1051     0FE5                     	;# 
  1052     0FE6                     	;# 
  1053     0FE7                     	;# 
  1054     0FE8                     	;# 
  1055     0FE9                     	;# 
  1056     0FEA                     	;# 
  1057     0FEB                     	;# 
  1058     0FED                     	;# 
  1059     0FEE                     	;# 
  1060     0FEF                     	;# 
  1061     0000                     	;# 
  1062     0001                     	;# 
  1063     0002                     	;# 
  1064     0003                     	;# 
  1065     0004                     	;# 
  1066     0005                     	;# 
  1067     0006                     	;# 
  1068     0007                     	;# 
  1069     0008                     	;# 
  1070     0009                     	;# 
  1071     000A                     	;# 
  1072     000B                     	;# 
  1073     000C                     	;# 
  1074     000D                     	;# 
  1075     000E                     	;# 
  1076     0010                     	;# 
  1077     0011                     	;# 
  1078     0012                     	;# 
  1079     0013                     	;# 
  1080     0015                     	;# 
  1081     0016                     	;# 
  1082     0016                     	;# 
  1083     0017                     	;# 
  1084     0018                     	;# 
  1085     0019                     	;# 
  1086     001A                     	;# 
  1087     001B                     	;# 
  1088     001C                     	;# 
  1089     001E                     	;# 
  1090     001F                     	;# 
  1091     008C                     	;# 
  1092     008D                     	;# 
  1093     008E                     	;# 
  1094     0090                     	;# 
  1095     0091                     	;# 
  1096     0092                     	;# 
  1097     0093                     	;# 
  1098     0095                     	;# 
  1099     0096                     	;# 
  1100     0097                     	;# 
  1101     0098                     	;# 
  1102     0099                     	;# 
  1103     009A                     	;# 
  1104     009B                     	;# 
  1105     009B                     	;# 
  1106     009C                     	;# 
  1107     009D                     	;# 
  1108     009E                     	;# 
  1109     010C                     	;# 
  1110     010D                     	;# 
  1111     010E                     	;# 
  1112     0110                     	;# 
  1113     0111                     	;# 
  1114     0112                     	;# 
  1115     0113                     	;# 
  1116     0114                     	;# 
  1117     0115                     	;# 
  1118     0116                     	;# 
  1119     0117                     	;# 
  1120     0118                     	;# 
  1121     0119                     	;# 
  1122     011A                     	;# 
  1123     011B                     	;# 
  1124     011D                     	;# 
  1125     018C                     	;# 
  1126     018D                     	;# 
  1127     0191                     	;# 
  1128     0191                     	;# 
  1129     0192                     	;# 
  1130     0193                     	;# 
  1131     0193                     	;# 
  1132     0193                     	;# 
  1133     0194                     	;# 
  1134     0195                     	;# 
  1135     0196                     	;# 
  1136     0199                     	;# 
  1137     019A                     	;# 
  1138     019B                     	;# 
  1139     019B                     	;# 
  1140     019B                     	;# 
  1141     019B                     	;# 
  1142     019C                     	;# 
  1143     019C                     	;# 
  1144     019D                     	;# 
  1145     019E                     	;# 
  1146     019F                     	;# 
  1147     020D                     	;# 
  1148     0210                     	;# 
  1149     0211                     	;# 
  1150     0212                     	;# 
  1151     0213                     	;# 
  1152     0214                     	;# 
  1153     0215                     	;# 
  1154     0215                     	;# 
  1155     0216                     	;# 
  1156     0217                     	;# 
  1157     0291                     	;# 
  1158     0291                     	;# 
  1159     0292                     	;# 
  1160     0293                     	;# 
  1161     0294                     	;# 
  1162     0295                     	;# 
  1163     0295                     	;# 
  1164     0296                     	;# 
  1165     0298                     	;# 
  1166     0298                     	;# 
  1167     0299                     	;# 
  1168     029A                     	;# 
  1169     029B                     	;# 
  1170     029C                     	;# 
  1171     029C                     	;# 
  1172     029D                     	;# 
  1173     029E                     	;# 
  1174     029F                     	;# 
  1175     0311                     	;# 
  1176     0311                     	;# 
  1177     0312                     	;# 
  1178     0313                     	;# 
  1179     0314                     	;# 
  1180     0315                     	;# 
  1181     0315                     	;# 
  1182     0316                     	;# 
  1183     0318                     	;# 
  1184     0318                     	;# 
  1185     0319                     	;# 
  1186     031A                     	;# 
  1187     031C                     	;# 
  1188     031C                     	;# 
  1189     031D                     	;# 
  1190     031E                     	;# 
  1191     0394                     	;# 
  1192     0395                     	;# 
  1193     0396                     	;# 
  1194     0415                     	;# 
  1195     0416                     	;# 
  1196     0417                     	;# 
  1197     041C                     	;# 
  1198     041D                     	;# 
  1199     041E                     	;# 
  1200     0791                     	;# 
  1201     0792                     	;# 
  1202     0793                     	;# 
  1203     0794                     	;# 
  1204     0795                     	;# 
  1205     0798                     	;# 
  1206     0799                     	;# 
  1207     07A0                     	;# 
  1208     07A1                     	;# 
  1209     07A3                     	;# 
  1210     07A4                     	;# 
  1211     07A6                     	;# 
  1212     07A7                     	;# 
  1213     07A9                     	;# 
  1214     07AA                     	;# 
  1215     0FE4                     	;# 
  1216     0FE5                     	;# 
  1217     0FE6                     	;# 
  1218     0FE7                     	;# 
  1219     0FE8                     	;# 
  1220     0FE9                     	;# 
  1221     0FEA                     	;# 
  1222     0FEB                     	;# 
  1223     0FED                     	;# 
  1224     0FEE                     	;# 
  1225     0FEF                     	;# 
  1226     0000                     	;# 
  1227     0001                     	;# 
  1228     0002                     	;# 
  1229     0003                     	;# 
  1230     0004                     	;# 
  1231     0005                     	;# 
  1232     0006                     	;# 
  1233     0007                     	;# 
  1234     0008                     	;# 
  1235     0009                     	;# 
  1236     000A                     	;# 
  1237     000B                     	;# 
  1238     000C                     	;# 
  1239     000D                     	;# 
  1240     000E                     	;# 
  1241     0010                     	;# 
  1242     0011                     	;# 
  1243     0012                     	;# 
  1244     0013                     	;# 
  1245     0015                     	;# 
  1246     0016                     	;# 
  1247     0016                     	;# 
  1248     0017                     	;# 
  1249     0018                     	;# 
  1250     0019                     	;# 
  1251     001A                     	;# 
  1252     001B                     	;# 
  1253     001C                     	;# 
  1254     001E                     	;# 
  1255     001F                     	;# 
  1256     008C                     	;# 
  1257     008D                     	;# 
  1258     008E                     	;# 
  1259     0090                     	;# 
  1260     0091                     	;# 
  1261     0092                     	;# 
  1262     0093                     	;# 
  1263     0095                     	;# 
  1264     0096                     	;# 
  1265     0097                     	;# 
  1266     0098                     	;# 
  1267     0099                     	;# 
  1268     009A                     	;# 
  1269     009B                     	;# 
  1270     009B                     	;# 
  1271     009C                     	;# 
  1272     009D                     	;# 
  1273     009E                     	;# 
  1274     010C                     	;# 
  1275     010D                     	;# 
  1276     010E                     	;# 
  1277     0110                     	;# 
  1278     0111                     	;# 
  1279     0112                     	;# 
  1280     0113                     	;# 
  1281     0114                     	;# 
  1282     0115                     	;# 
  1283     0116                     	;# 
  1284     0117                     	;# 
  1285     0118                     	;# 
  1286     0119                     	;# 
  1287     011A                     	;# 
  1288     011B                     	;# 
  1289     011D                     	;# 
  1290     018C                     	;# 
  1291     018D                     	;# 
  1292     0191                     	;# 
  1293     0191                     	;# 
  1294     0192                     	;# 
  1295     0193                     	;# 
  1296     0193                     	;# 
  1297     0193                     	;# 
  1298     0194                     	;# 
  1299     0195                     	;# 
  1300     0196                     	;# 
  1301     0199                     	;# 
  1302     019A                     	;# 
  1303     019B                     	;# 
  1304     019B                     	;# 
  1305     019B                     	;# 
  1306     019B                     	;# 
  1307     019C                     	;# 
  1308     019C                     	;# 
  1309     019D                     	;# 
  1310     019E                     	;# 
  1311     019F                     	;# 
  1312     020D                     	;# 
  1313     0210                     	;# 
  1314     0211                     	;# 
  1315     0212                     	;# 
  1316     0213                     	;# 
  1317     0214                     	;# 
  1318     0215                     	;# 
  1319     0215                     	;# 
  1320     0216                     	;# 
  1321     0217                     	;# 
  1322     0291                     	;# 
  1323     0291                     	;# 
  1324     0292                     	;# 
  1325     0293                     	;# 
  1326     0294                     	;# 
  1327     0295                     	;# 
  1328     0295                     	;# 
  1329     0296                     	;# 
  1330     0298                     	;# 
  1331     0298                     	;# 
  1332     0299                     	;# 
  1333     029A                     	;# 
  1334     029B                     	;# 
  1335     029C                     	;# 
  1336     029C                     	;# 
  1337     029D                     	;# 
  1338     029E                     	;# 
  1339     029F                     	;# 
  1340     0311                     	;# 
  1341     0311                     	;# 
  1342     0312                     	;# 
  1343     0313                     	;# 
  1344     0314                     	;# 
  1345     0315                     	;# 
  1346     0315                     	;# 
  1347     0316                     	;# 
  1348     0318                     	;# 
  1349     0318                     	;# 
  1350     0319                     	;# 
  1351     031A                     	;# 
  1352     031C                     	;# 
  1353     031C                     	;# 
  1354     031D                     	;# 
  1355     031E                     	;# 
  1356     0394                     	;# 
  1357     0395                     	;# 
  1358     0396                     	;# 
  1359     0415                     	;# 
  1360     0416                     	;# 
  1361     0417                     	;# 
  1362     041C                     	;# 
  1363     041D                     	;# 
  1364     041E                     	;# 
  1365     0791                     	;# 
  1366     0792                     	;# 
  1367     0793                     	;# 
  1368     0794                     	;# 
  1369     0795                     	;# 
  1370     0798                     	;# 
  1371     0799                     	;# 
  1372     07A0                     	;# 
  1373     07A1                     	;# 
  1374     07A3                     	;# 
  1375     07A4                     	;# 
  1376     07A6                     	;# 
  1377     07A7                     	;# 
  1378     07A9                     	;# 
  1379     07AA                     	;# 
  1380     0FE4                     	;# 
  1381     0FE5                     	;# 
  1382     0FE6                     	;# 
  1383     0FE7                     	;# 
  1384     0FE8                     	;# 
  1385     0FE9                     	;# 
  1386     0FEA                     	;# 
  1387     0FEB                     	;# 
  1388     0FED                     	;# 
  1389     0FEE                     	;# 
  1390     0FEF                     	;# 
  1391                           
  1392                           	psect	idataBANK1
  1393     02A5                     __pidataBANK1:
  1394                           
  1395                           ;initializer for _CS
  1396     02A5  344C               	retlw	76
  1397     02A6  349F               	retlw	159
  1398     02A7  34ED               	retlw	237
  1399     02A8  343E               	retlw	62
  1400     02A9  3466               	retlw	102
  1401     02AA  34B5               	retlw	181
  1402     02AB  34C7               	retlw	199
  1403     02AC  3414               	retlw	20
  1404     02AD  3459               	retlw	89
  1405     02AE  348A               	retlw	138
  1406     02AF  34F8               	retlw	248
  1407     02B0  342B               	retlw	43
  1408     02B1  3473               	retlw	115
  1409     02B2  34A0               	retlw	160
  1410     02B3  34D2               	retlw	210
  1411     02B4  3401               	retlw	1
  1412     02B5  348E               	retlw	142
  1413     02B6  345D               	retlw	93
  1414     02B7  342F               	retlw	47
  1415     02B8  34FC               	retlw	252
  1416     02B9  34A4               	retlw	164
  1417     02BA  3477               	retlw	119
  1418     02BB  3405               	retlw	5
  1419     02BC  34D6               	retlw	214
  1420     02BD  349B               	retlw	155
  1421     02BE  3448               	retlw	72
  1422     02BF  343A               	retlw	58
  1423     02C0  34E9               	retlw	233
  1424     02C1  34B1               	retlw	177
  1425     02C2  3462               	retlw	98
  1426     02C3  3410               	retlw	16
  1427     02C4  34C3               	retlw	195
  1428     02C5  342D               	retlw	45
  1429     02C6  34FE               	retlw	254
  1430     02C7  348C               	retlw	140
  1431     02C8  345F               	retlw	95
  1432     02C9  3407               	retlw	7
  1433     02CA  34D4               	retlw	212
  1434     02CB  34A6               	retlw	166
  1435     02CC  3475               	retlw	117
  1436     02CD  3438               	retlw	56
  1437     02CE  34EB               	retlw	235
  1438     02CF  3499               	retlw	153
  1439     02D0  344A               	retlw	74
  1440     02D1  3412               	retlw	18
  1441     02D2  34C1               	retlw	193
  1442     02D3  34B3               	retlw	179
  1443     02D4  3460               	retlw	96
  1444     02D5  34EF               	retlw	239
  1445     02D6  343C               	retlw	60
  1446     02D7  344E               	retlw	78
  1447     02D8  349D               	retlw	157
  1448     02D9  34C5               	retlw	197
  1449     02DA  3416               	retlw	22
  1450     02DB  3464               	retlw	100
  1451     02DC  34B7               	retlw	183
  1452     02DD  34FA               	retlw	250
  1453     02DE  3429               	retlw	41
  1454     02DF  345B               	retlw	91
  1455     02E0  3488               	retlw	136
  1456     02E1  34D0               	retlw	208
  1457     02E2  3403               	retlw	3
  1458     02E3  3471               	retlw	113
  1459     02E4  34A2               	retlw	162
  1460                           
  1461                           	psect	stringtext1
  1462     0046                     __pstringtext1:
  1463     0046                     _crc8_table_fixed:
  1464     0046  3400               	retlw	0
  1465     0047  34D0               	retlw	208
  1466     0048  3431               	retlw	49
  1467     0049  34E1               	retlw	225
  1468     004A  3462               	retlw	98
  1469     004B  34B2               	retlw	178
  1470     004C  3453               	retlw	83
  1471     004D  3483               	retlw	131
  1472     004E  34C4               	retlw	196
  1473     004F  3414               	retlw	20
  1474     0050  34F5               	retlw	245
  1475     0051  3425               	retlw	37
  1476     0052  34A6               	retlw	166
  1477     0053  3476               	retlw	118
  1478     0054  3497               	retlw	151
  1479     0055  3447               	retlw	71
  1480     0056  3419               	retlw	25
  1481     0057  34C9               	retlw	201
  1482     0058  3428               	retlw	40
  1483     0059  34F8               	retlw	248
  1484     005A  347B               	retlw	123
  1485     005B  34AB               	retlw	171
  1486     005C  344A               	retlw	74
  1487     005D  349A               	retlw	154
  1488     005E  34DD               	retlw	221
  1489     005F  340D               	retlw	13
  1490     0060  34EC               	retlw	236
  1491     0061  343C               	retlw	60
  1492     0062  34BF               	retlw	191
  1493     0063  346F               	retlw	111
  1494     0064  348E               	retlw	142
  1495     0065  345E               	retlw	94
  1496     0066  3432               	retlw	50
  1497     0067  34E2               	retlw	226
  1498     0068  3403               	retlw	3
  1499     0069  34D3               	retlw	211
  1500     006A  3450               	retlw	80
  1501     006B  3480               	retlw	128
  1502     006C  3461               	retlw	97
  1503     006D  34B1               	retlw	177
  1504     006E  34F6               	retlw	246
  1505     006F  3426               	retlw	38
  1506     0070  34C7               	retlw	199
  1507     0071  3417               	retlw	23
  1508     0072  3494               	retlw	148
  1509     0073  3444               	retlw	68
  1510     0074  34A5               	retlw	165
  1511     0075  3475               	retlw	117
  1512     0076  342B               	retlw	43
  1513     0077  34FB               	retlw	251
  1514     0078  341A               	retlw	26
  1515     0079  34CA               	retlw	202
  1516     007A  3449               	retlw	73
  1517     007B  3499               	retlw	153
  1518     007C  3478               	retlw	120
  1519     007D  34A8               	retlw	168
  1520     007E  34EF               	retlw	239
  1521     007F  343F               	retlw	63
  1522     0080  34DE               	retlw	222
  1523     0081  340E               	retlw	14
  1524     0082  348D               	retlw	141
  1525     0083  345D               	retlw	93
  1526     0084  34BC               	retlw	188
  1527     0085  346C               	retlw	108
  1528     0086  3464               	retlw	100
  1529     0087  34B4               	retlw	180
  1530     0088  3455               	retlw	85
  1531     0089  3485               	retlw	133
  1532     008A  3406               	retlw	6
  1533     008B  34D6               	retlw	214
  1534     008C  3437               	retlw	55
  1535     008D  34E7               	retlw	231
  1536     008E  34A0               	retlw	160
  1537     008F  3470               	retlw	112
  1538     0090  3491               	retlw	145
  1539     0091  3441               	retlw	65
  1540     0092  34C2               	retlw	194
  1541     0093  3412               	retlw	18
  1542     0094  34F3               	retlw	243
  1543     0095  3423               	retlw	35
  1544     0096  347D               	retlw	125
  1545     0097  34AD               	retlw	173
  1546     0098  344C               	retlw	76
  1547     0099  349C               	retlw	156
  1548     009A  341F               	retlw	31
  1549     009B  34CF               	retlw	207
  1550     009C  342E               	retlw	46
  1551     009D  34FE               	retlw	254
  1552     009E  34B9               	retlw	185
  1553     009F  3469               	retlw	105
  1554     00A0  3488               	retlw	136
  1555     00A1  3458               	retlw	88
  1556     00A2  34DB               	retlw	219
  1557     00A3  340B               	retlw	11
  1558     00A4  34EA               	retlw	234
  1559     00A5  343A               	retlw	58
  1560     00A6  3456               	retlw	86
  1561     00A7  3486               	retlw	134
  1562     00A8  3467               	retlw	103
  1563     00A9  34B7               	retlw	183
  1564     00AA  3434               	retlw	52
  1565     00AB  34E4               	retlw	228
  1566     00AC  3405               	retlw	5
  1567     00AD  34D5               	retlw	213
  1568     00AE  3492               	retlw	146
  1569     00AF  3442               	retlw	66
  1570     00B0  34A3               	retlw	163
  1571     00B1  3473               	retlw	115
  1572     00B2  34F0               	retlw	240
  1573     00B3  3420               	retlw	32
  1574     00B4  34C1               	retlw	193
  1575     00B5  3411               	retlw	17
  1576     00B6  344F               	retlw	79
  1577     00B7  349F               	retlw	159
  1578     00B8  347E               	retlw	126
  1579     00B9  34AE               	retlw	174
  1580     00BA  342D               	retlw	45
  1581     00BB  34FD               	retlw	253
  1582     00BC  341C               	retlw	28
  1583     00BD  34CC               	retlw	204
  1584     00BE  348B               	retlw	139
  1585     00BF  345B               	retlw	91
  1586     00C0  34BA               	retlw	186
  1587     00C1  346A               	retlw	106
  1588     00C2  34E9               	retlw	233
  1589     00C3  3439               	retlw	57
  1590     00C4  34D8               	retlw	216
  1591     00C5  3408               	retlw	8
  1592     00C6  34C8               	retlw	200
  1593     00C7  3418               	retlw	24
  1594     00C8  34F9               	retlw	249
  1595     00C9  3429               	retlw	41
  1596     00CA  34AA               	retlw	170
  1597     00CB  347A               	retlw	122
  1598     00CC  349B               	retlw	155
  1599     00CD  344B               	retlw	75
  1600     00CE  340C               	retlw	12
  1601     00CF  34DC               	retlw	220
  1602     00D0  343D               	retlw	61
  1603     00D1  34ED               	retlw	237
  1604     00D2  346E               	retlw	110
  1605     00D3  34BE               	retlw	190
  1606     00D4  345F               	retlw	95
  1607     00D5  348F               	retlw	143
  1608     00D6  34D1               	retlw	209
  1609     00D7  3401               	retlw	1
  1610     00D8  34E0               	retlw	224
  1611     00D9  3430               	retlw	48
  1612     00DA  34B3               	retlw	179
  1613     00DB  3463               	retlw	99
  1614     00DC  3482               	retlw	130
  1615     00DD  3452               	retlw	82
  1616     00DE  3415               	retlw	21
  1617     00DF  34C5               	retlw	197
  1618     00E0  3424               	retlw	36
  1619     00E1  34F4               	retlw	244
  1620     00E2  3477               	retlw	119
  1621     00E3  34A7               	retlw	167
  1622     00E4  3446               	retlw	70
  1623     00E5  3496               	retlw	150
  1624     00E6  34FA               	retlw	250
  1625     00E7  342A               	retlw	42
  1626     00E8  34CB               	retlw	203
  1627     00E9  341B               	retlw	27
  1628     00EA  3498               	retlw	152
  1629     00EB  3448               	retlw	72
  1630     00EC  34A9               	retlw	169
  1631     00ED  3479               	retlw	121
  1632     00EE  343E               	retlw	62
  1633     00EF  34EE               	retlw	238
  1634     00F0  340F               	retlw	15
  1635     00F1  34DF               	retlw	223
  1636     00F2  345C               	retlw	92
  1637     00F3  348C               	retlw	140
  1638     00F4  346D               	retlw	109
  1639     00F5  34BD               	retlw	189
  1640     00F6  34E3               	retlw	227
  1641     00F7  3433               	retlw	51
  1642     00F8  34D2               	retlw	210
  1643     00F9  3402               	retlw	2
  1644     00FA  3481               	retlw	129
  1645     00FB  3451               	retlw	81
  1646     00FC  34B0               	retlw	176
  1647     00FD  3460               	retlw	96
  1648     00FE  3427               	retlw	39
  1649     00FF  34F7               	retlw	247
  1650     0100  3416               	retlw	22
  1651     0101  34C6               	retlw	198
  1652     0102  3445               	retlw	69
  1653     0103  3495               	retlw	149
  1654     0104  3474               	retlw	116
  1655     0105  34A4               	retlw	164
  1656     0106  34AC               	retlw	172
  1657     0107  347C               	retlw	124
  1658     0108  349D               	retlw	157
  1659     0109  344D               	retlw	77
  1660     010A  34CE               	retlw	206
  1661     010B  341E               	retlw	30
  1662     010C  34FF               	retlw	255
  1663     010D  342F               	retlw	47
  1664     010E  3468               	retlw	104
  1665     010F  34B8               	retlw	184
  1666     0110  3459               	retlw	89
  1667     0111  3489               	retlw	137
  1668     0112  340A               	retlw	10
  1669     0113  34DA               	retlw	218
  1670     0114  343B               	retlw	59
  1671     0115  34EB               	retlw	235
  1672     0116  34B5               	retlw	181
  1673     0117  3465               	retlw	101
  1674     0118  3484               	retlw	132
  1675     0119  3454               	retlw	84
  1676     011A  34D7               	retlw	215
  1677     011B  3407               	retlw	7
  1678     011C  34E6               	retlw	230
  1679     011D  3436               	retlw	54
  1680     011E  3471               	retlw	113
  1681     011F  34A1               	retlw	161
  1682     0120  3440               	retlw	64
  1683     0121  3490               	retlw	144
  1684     0122  3413               	retlw	19
  1685     0123  34C3               	retlw	195
  1686     0124  3422               	retlw	34
  1687     0125  34F2               	retlw	242
  1688     0126  349E               	retlw	158
  1689     0127  344E               	retlw	78
  1690     0128  34AF               	retlw	175
  1691     0129  347F               	retlw	127
  1692     012A  34FC               	retlw	252
  1693     012B  342C               	retlw	44
  1694     012C  34CD               	retlw	205
  1695     012D  341D               	retlw	29
  1696     012E  345A               	retlw	90
  1697     012F  348A               	retlw	138
  1698     0130  346B               	retlw	107
  1699     0131  34BB               	retlw	187
  1700     0132  3438               	retlw	56
  1701     0133  34E8               	retlw	232
  1702     0134  3409               	retlw	9
  1703     0135  34D9               	retlw	217
  1704     0136  3487               	retlw	135
  1705     0137  3457               	retlw	87
  1706     0138  34B6               	retlw	182
  1707     0139  3466               	retlw	102
  1708     013A  34E5               	retlw	229
  1709     013B  3435               	retlw	53
  1710     013C  34D4               	retlw	212
  1711     013D  3404               	retlw	4
  1712     013E  3443               	retlw	67
  1713     013F  3493               	retlw	147
  1714     0140  3472               	retlw	114
  1715     0141  34A2               	retlw	162
  1716     0142  3421               	retlw	33
  1717     0143  34F1               	retlw	241
  1718     0144  3410               	retlw	16
  1719     0145  34C0               	retlw	192
  1720     0146                     __end_of_crc8_table_fixed:
  1721     0018                     _T1CON	set	24
  1722     0011                     _PIR1bits	set	17
  1723     0016                     _TMR1L	set	22
  1724     0017                     _TMR1H	set	23
  1725     0019                     _T1GCON	set	25
  1726     0015                     _TMR0	set	21
  1727     0013                     _PIR3bits	set	19
  1728     000B                     _INTCONbits	set	11
  1729     0095                     _OPTION_REG	set	149
  1730     0095                     _OPTION_REGbits	set	149
  1731     008E                     _TRISC	set	142
  1732     008D                     _TRISB	set	141
  1733     008C                     _TRISA	set	140
  1734     0090                     _TRISE	set	144
  1735     0097                     _WDTCON	set	151
  1736     0098                     _OSCTUNE	set	152
  1737     0099                     _OSCCON	set	153
  1738     0093                     _PIE3bits	set	147
  1739     04D6                     _PLLR	set	1238
  1740     011D                     _APFCON	set	285
  1741     010E                     _LATC	set	270
  1742     010D                     _LATB	set	269
  1743     010C                     _LATA	set	268
  1744     0110                     _LATE	set	272
  1745     0116                     _BORCON	set	278
  1746     010D                     _LATBbits	set	269
  1747     0868                     _LATB0	set	2152
  1748     0869                     _LATB1	set	2153
  1749     086A                     _LATB2	set	2154
  1750     086B                     _LATB3	set	2155
  1751     086C                     _LATB4	set	2156
  1752     086D                     _LATB5	set	2157
  1753     018C                     _ANSELA	set	396
  1754     018D                     _ANSELB	set	397
  1755     020D                     _WPUB	set	525
  1756     0210                     _WPUE	set	528
  1757     0311                     _CCPR3L	set	785
  1758     0312                     _CCPR3H	set	786
  1759     0313                     _CCP3CON	set	787
  1760                           
  1761                           	psect	cinit
  1762     0028                     start_initialization:	
  1763                           ; #config settings
  1764                           
  1765     0028                     __initialization:
  1766                           
  1767                           ; Initialize objects allocated to BANK1
  1768     0028  30A5               	movlw	low __pidataBANK1
  1769     0029  0084               	movwf	4
  1770     002A  3082               	movlw	(high __pidataBANK1)| (0+128)
  1771     002B  0085               	movwf	5
  1772     002C  30A0               	movlw	low __pdataBANK1
  1773     002D  0086               	movwf	6
  1774     002E  3000               	movlw	high __pdataBANK1
  1775     002F  0087               	movwf	7
  1776     0030  3040               	movlw	64
  1777     0031  3183  23D6  3180   	fcall	init_ram
  1778                           
  1779                           ; Clear objects allocated to COMMON
  1780     0034  01F0               	clrf	__pbssCOMMON& (0+127)
  1781     0035  01F1               	clrf	(__pbssCOMMON+1)& (0+127)
  1782     0036  01F2               	clrf	(__pbssCOMMON+2)& (0+127)
  1783     0037  01F3               	clrf	(__pbssCOMMON+3)& (0+127)
  1784     0038  01F4               	clrf	(__pbssCOMMON+4)& (0+127)
  1785     0039  01F5               	clrf	(__pbssCOMMON+5)& (0+127)
  1786                           
  1787                           ; Clear objects allocated to BANK0
  1788     003A  3020               	movlw	low __pbssBANK0
  1789     003B  0084               	movwf	4
  1790     003C  3000               	movlw	high __pbssBANK0
  1791     003D  0085               	movwf	5
  1792     003E  3026               	movlw	38
  1793     003F  3183  23DC  3180   	fcall	clear_ram0
  1794     0042                     end_of_initialization:	
  1795                           ;End of C runtime variable initialization code
  1796                           
  1797     0042                     __end_of__initialization:
  1798     0042  107E               	bcf	int$flags,0	;clear compiler interrupt flag (level 1)
  1799     0043  0020               	movlb	0
  1800     0044  3183  2B30         	ljmp	_main	;jump to C main() function
  1801                           
  1802                           	psect	bssCOMMON
  1803     0070                     __pbssCOMMON:
  1804     0070                     ECCP3_CallBack@rising_edge_time:
  1805     0070                     	ds	2
  1806     0072                     ECCP3_CallBack@falling_edge_time:
  1807     0072                     	ds	2
  1808     0074                     _D2:
  1809     0074                     	ds	1
  1810     0075                     _rx_data:
  1811     0075                     	ds	1
  1812                           
  1813                           	psect	bssBANK0
  1814     0020                     __pbssBANK0:
  1815     0020                     _data_buf:
  1816     0020                     	ds	11
  1817     002B                     _timer1ReloadVal:
  1818     002B                     	ds	2
  1819     002D                     TMR0_ISR@CountCallBack:
  1820     002D                     	ds	2
  1821     002F                     _TMR0_InterruptHandler:
  1822     002F                     	ds	2
  1823     0031                     ECCP3_CallBack@pluse_width_HI:
  1824     0031                     	ds	2
  1825     0033                     ECCP3_CallBack@pluse_width_LO:
  1826     0033                     	ds	2
  1827     0035                     _timer0ReloadVal:
  1828     0035                     	ds	1
  1829     0036                     ECCP3_CallBack@data_bit:
  1830     0036                     	ds	1
  1831     0037                     ECCP3_CallBack@data_cnt:
  1832     0037                     	ds	1
  1833     0038                     ECCP3_CallBack@fHead:
  1834     0038                     	ds	1
  1835     0039                     ECCP3_CallBack@rise_edge_flag:
  1836     0039                     	ds	1
  1837     003A                     ECCP3_CallBack@diff_us:
  1838     003A                     	ds	1
  1839     003B                     ECCP3_CallBack@LO_us:
  1840     003B                     	ds	1
  1841     003C                     ECCP3_CallBack@HI_us:
  1842     003C                     	ds	1
  1843     003D                     _fLampSide:
  1844     003D                     	ds	1
  1845     003E                     _fException2:
  1846     003E                     	ds	1
  1847     003F                     _fException:
  1848     003F                     	ds	1
  1849     0040                     _T10MS_CNT:
  1850     0040                     	ds	1
  1851     0041                     _csFlag:
  1852     0041                     	ds	1
  1853     0042                     _D3:
  1854     0042                     	ds	1
  1855     0043                     _step:
  1856     0043                     	ds	1
  1857     0044                     _fFrame_OK:
  1858     0044                     	ds	1
  1859     0045                     _data_1byte_OK:
  1860     0045                     	ds	1
  1861                           
  1862                           	psect	dataBANK1
  1863     00A0                     __pdataBANK1:
  1864     00A0                     _CS:
  1865     00A0                     	ds	64
  1866                           
  1867                           	psect	inittext
  1868     03D6                     init_ram:
  1869     03D6  00FE               	movwf	btemp
  1870     03D7                     initloop:
  1871     03D7  0012               	moviw fsr0++
  1872     03D8  001E               	movwi fsr1++
  1873     03D9  0BFE               	decfsz	btemp,f
  1874     03DA  2BD7               	goto	initloop
  1875     03DB  3400               	retlw	0
  1876                           
  1877                           	psect	clrtext
  1878     03DC                     clear_ram0:	
  1879                           ;	Called with FSR0 containing the base address, and
  1880                           ;	WREG with the size to clear
  1881                           
  1882     03DC  0064               	clrwdt	;clear the watchdog before getting into this loop
  1883     03DD                     clrloop0:
  1884     03DD  0180               	clrf	0	;clear RAM location pointed to by FSR
  1885     03DE  3101               	addfsr 0,1
  1886     03DF  0B89               	decfsz	9,f	;Have we reached the end of clearing yet?
  1887     03E0  2BDD               	goto	clrloop0	;have we reached the end yet?
  1888     03E1  3400               	retlw	0	;all done for this memory range, return
  1889                           
  1890                           	psect	cstackCOMMON
  1891     0076                     __pcstackCOMMON:
  1892     0076                     ?_SYSTEM_Initialize:
  1893     0076                     ?_TMR0_ISR:	
  1894                           ; 1 bytes @ 0x0
  1895                           
  1896     0076                     ?_PIN_MANAGER_Initialize:	
  1897                           ; 1 bytes @ 0x0
  1898                           
  1899     0076                     ?_OSCILLATOR_Initialize:	
  1900                           ; 1 bytes @ 0x0
  1901                           
  1902     0076                     ?_WDT_Initialize:	
  1903                           ; 1 bytes @ 0x0
  1904                           
  1905     0076                     ?_TMR1_Initialize:	
  1906                           ; 1 bytes @ 0x0
  1907                           
  1908     0076                     ?_TMR0_Initialize:	
  1909                           ; 1 bytes @ 0x0
  1910                           
  1911     0076                     ?_TMR0_DefaultInterruptHandler:	
  1912                           ; 1 bytes @ 0x0
  1913                           
  1914     0076                     ??_TMR0_DefaultInterruptHandler:	
  1915                           ; 1 bytes @ 0x0
  1916                           
  1917     0076                     ?_TMR0_CallBack:	
  1918                           ; 1 bytes @ 0x0
  1919                           
  1920     0076                     ?_LED_output:	
  1921                           ; 1 bytes @ 0x0
  1922                           
  1923     0076                     ?_check_input:	
  1924                           ; 1 bytes @ 0x0
  1925                           
  1926     0076                     ?_getFrameData:	
  1927                           ; 1 bytes @ 0x0
  1928                           
  1929     0076                     ?_ECCP3_CallBack:	
  1930                           ; 1 bytes @ 0x0
  1931                           
  1932     0076                     ?_TMR0_EvenHandler:	
  1933                           ; 1 bytes @ 0x0
  1934                           
  1935     0076                     ??_TMR0_EvenHandler:	
  1936                           ; 1 bytes @ 0x0
  1937                           
  1938     0076                     ?_main:	
  1939                           ; 1 bytes @ 0x0
  1940                           
  1941     0076                     ?_ECCP3_Initialize:	
  1942                           ; 1 bytes @ 0x0
  1943                           
  1944     0076                     ?_ECCP3_CaptureISR:	
  1945                           ; 1 bytes @ 0x0
  1946                           
  1947     0076                     ?_INTERRUPT_InterruptManager:	
  1948                           ; 1 bytes @ 0x0
  1949                           
  1950     0076                     ECCP3_CallBack@capturedValue:	
  1951                           ; 1 bytes @ 0x0
  1952                           
  1953                           
  1954                           ; 2 bytes @ 0x0
  1955     0076                     	ds	1
  1956     0077                     ??_TMR0_ISR:
  1957     0077                     ??_TMR0_CallBack:	
  1958                           ; 1 bytes @ 0x1
  1959                           
  1960                           
  1961                           ; 1 bytes @ 0x1
  1962     0077                     	ds	1
  1963     0078                     ??_ECCP3_CallBack:
  1964                           
  1965                           ; 1 bytes @ 0x2
  1966     0078                     	ds	2
  1967     007A                     ??_ECCP3_CaptureISR:
  1968     007A                     ECCP3_CaptureISR@module:	
  1969                           ; 1 bytes @ 0x4
  1970                           
  1971                           
  1972                           ; 2 bytes @ 0x4
  1973     007A                     	ds	2
  1974     007C                     ??_INTERRUPT_InterruptManager:
  1975                           
  1976                           	psect	cstackBANK0
  1977     0046                     __pcstackBANK0:	
  1978                           ; 1 bytes @ 0x6
  1979                           
  1980     0046                     ?_TMR0_SetInterruptHandler:
  1981     0046                     ??_PIN_MANAGER_Initialize:	
  1982                           ; 1 bytes @ 0x0
  1983                           
  1984     0046                     ??_OSCILLATOR_Initialize:	
  1985                           ; 1 bytes @ 0x0
  1986                           
  1987     0046                     ??_WDT_Initialize:	
  1988                           ; 1 bytes @ 0x0
  1989                           
  1990     0046                     ??_TMR1_Initialize:	
  1991                           ; 1 bytes @ 0x0
  1992                           
  1993     0046                     ??_LED_output:	
  1994                           ; 1 bytes @ 0x0
  1995                           
  1996     0046                     ??_check_input:	
  1997                           ; 1 bytes @ 0x0
  1998                           
  1999     0046                     ??_getFrameData:	
  2000                           ; 1 bytes @ 0x0
  2001                           
  2002     0046                     ??_ECCP3_Initialize:	
  2003                           ; 1 bytes @ 0x0
  2004                           
  2005     0046                     TMR0_SetInterruptHandler@InterruptHandler:	
  2006                           ; 1 bytes @ 0x0
  2007                           
  2008                           
  2009                           ; 2 bytes @ 0x0
  2010     0046                     	ds	1
  2011     0047                     LED_output@crc8:
  2012                           
  2013                           ; 1 bytes @ 0x1
  2014     0047                     	ds	1
  2015     0048                     ??_SYSTEM_Initialize:
  2016     0048                     ??_TMR0_SetInterruptHandler:	
  2017                           ; 1 bytes @ 0x2
  2018                           
  2019     0048                     ??_TMR0_Initialize:	
  2020                           ; 1 bytes @ 0x2
  2021                           
  2022     0048                     LED_output@i:	
  2023                           ; 1 bytes @ 0x2
  2024                           
  2025                           
  2026                           ; 1 bytes @ 0x2
  2027     0048                     	ds	1
  2028     0049                     ??_main:
  2029                           
  2030                           	psect	maintext
  2031     0330                     __pmaintext:	
  2032                           ; 1 bytes @ 0x3
  2033 ;;
  2034 ;;Main: autosize = 0, tempsize = 0, incstack = 0, save=0
  2035 ;;
  2036 ;; *************** function _main *****************
  2037 ;; Defined at:
  2038 ;;		line 517 in file "D:\yiming\00work\tundar_RX_CRC8_V01.X\main.c"
  2039 ;; Parameters:    Size  Location     Type
  2040 ;;		None
  2041 ;; Auto vars:     Size  Location     Type
  2042 ;;		None
  2043 ;; Return value:  Size  Location     Type
  2044 ;;                  1    wreg      void 
  2045 ;; Registers used:
  2046 ;;		wreg, fsr0l, fsr0h, fsr1l, fsr1h, status,2, status,0, pclath, cstack
  2047 ;; Tracked objects:
  2048 ;;		On entry : B1F/0
  2049 ;;		On exit  : 0/0
  2050 ;;		Unchanged: 0/0
  2051 ;; Data sizes:     COMMON   BANK0   BANK1   BANK2   BANK3   BANK4   BANK5   BANK6
  2052 ;;      Params:         0       0       0       0       0       0       0       0
  2053 ;;      Locals:         0       0       0       0       0       0       0       0
  2054 ;;      Temps:          0       0       0       0       0       0       0       0
  2055 ;;      Totals:         0       0       0       0       0       0       0       0
  2056 ;;Total ram usage:        0 bytes
  2057 ;; Hardware stack levels required when called: 7
  2058 ;; This function calls:
  2059 ;;		_LED_output
  2060 ;;		_SYSTEM_Initialize
  2061 ;;		_TMR0_SetInterruptHandler
  2062 ;;		_check_input
  2063 ;;		_getFrameData
  2064 ;; This function is called by:
  2065 ;;		Startup code after reset
  2066 ;; This function uses a non-reentrant model
  2067 ;;
  2068                           
  2069     0330                     _main:	
  2070                           ;psect for function _main
  2071                           
  2072     0330                     l1585:	
  2073                           ;incstack = 0
  2074                           ; Regs used in _main: [wreg-fsr1h+status,2+status,0+pclath+cstack]
  2075                           
  2076                           
  2077                           ;D:\yiming\00work\tundar_RX_CRC8_V01.X\main.c: 519:   SYSTEM_Initialize();
  2078     0330  3183  2375  3183   	fcall	_SYSTEM_Initialize
  2079                           
  2080                           ;D:\yiming\00work\tundar_RX_CRC8_V01.X\main.c: 520:   TMR0_SetInterruptHandler(TMR0_Even
      +                          Handler);
  2081     0333  3088               	movlw	low _TMR0_EvenHandler
  2082     0334  0020               	movlb	0	; select bank0
  2083     0335  00C6               	movwf	TMR0_SetInterruptHandler@InterruptHandler
  2084     0336  3003               	movlw	high _TMR0_EvenHandler
  2085     0337  00C7               	movwf	TMR0_SetInterruptHandler@InterruptHandler+1
  2086     0338  3183  23E2  3183   	fcall	_TMR0_SetInterruptHandler
  2087     033B                     l1587:
  2088                           
  2089                           ;D:\yiming\00work\tundar_RX_CRC8_V01.X\main.c: 526:   (INTCONbits.GIE = 1);
  2090     033B  178B               	bsf	11,7	;volatile
  2091     033C                     l1589:
  2092                           
  2093                           ;D:\yiming\00work\tundar_RX_CRC8_V01.X\main.c: 529:   (INTCONbits.PEIE = 1);
  2094     033C  170B               	bsf	11,6	;volatile
  2095     033D                     l1591:
  2096                           
  2097                           ;D:\yiming\00work\tundar_RX_CRC8_V01.X\main.c: 538:     getFrameData();
  2098     033D  3181  21D8  3183   	fcall	_getFrameData
  2099     0340                     l1593:
  2100                           
  2101                           ;D:\yiming\00work\tundar_RX_CRC8_V01.X\main.c: 539:     check_input();
  2102     0340  3182  22E5  3183   	fcall	_check_input
  2103     0343                     l1595:
  2104                           
  2105                           ;D:\yiming\00work\tundar_RX_CRC8_V01.X\main.c: 540:     LED_output();
  2106     0343  3182  2249  3183   	fcall	_LED_output
  2107     0346  2B3D               	goto	l1591
  2108     0347  3180  2826         	ljmp	start
  2109     0349                     __end_of_main:
  2110                           
  2111                           	psect	text1
  2112     01D8                     __ptext1:	
  2113 ;; *************** function _getFrameData *****************
  2114 ;; Defined at:
  2115 ;;		line 353 in file "D:\yiming\00work\tundar_RX_CRC8_V01.X\main.c"
  2116 ;; Parameters:    Size  Location     Type
  2117 ;;		None
  2118 ;; Auto vars:     Size  Location     Type
  2119 ;;		None
  2120 ;; Return value:  Size  Location     Type
  2121 ;;                  1    wreg      void 
  2122 ;; Registers used:
  2123 ;;		wreg, fsr0l, fsr0h, status,2, status,0
  2124 ;; Tracked objects:
  2125 ;;		On entry : 0/0
  2126 ;;		On exit  : 0/0
  2127 ;;		Unchanged: 0/0
  2128 ;; Data sizes:     COMMON   BANK0   BANK1   BANK2   BANK3   BANK4   BANK5   BANK6
  2129 ;;      Params:         0       0       0       0       0       0       0       0
  2130 ;;      Locals:         0       0       0       0       0       0       0       0
  2131 ;;      Temps:          0       0       0       0       0       0       0       0
  2132 ;;      Totals:         0       0       0       0       0       0       0       0
  2133 ;;Total ram usage:        0 bytes
  2134 ;; Hardware stack levels used: 1
  2135 ;; Hardware stack levels required when called: 4
  2136 ;; This function calls:
  2137 ;;		Nothing
  2138 ;; This function is called by:
  2139 ;;		_main
  2140 ;; This function uses a non-reentrant model
  2141 ;;
  2142                           
  2143     01D8                     _getFrameData:	
  2144                           ;psect for function _getFrameData
  2145                           
  2146     01D8                     l1537:	
  2147                           ;incstack = 0
  2148                           ; Regs used in _getFrameData: [wreg-fsr0h+status,2+status,0]
  2149                           
  2150                           
  2151                           ;D:\yiming\00work\tundar_RX_CRC8_V01.X\main.c: 354:   if (data_1byte_OK == 1) {
  2152     01D8  0020               	movlb	0	; select bank0
  2153     01D9  0345               	decf	_data_1byte_OK,w	;volatile
  2154     01DA  1D03               	btfss	3,2
  2155     01DB  29DD               	goto	u881
  2156     01DC  29DE               	goto	u880
  2157     01DD                     u881:
  2158     01DD  2A48               	goto	l109
  2159     01DE                     u880:
  2160     01DE                     l1539:
  2161                           
  2162                           ;D:\yiming\00work\tundar_RX_CRC8_V01.X\main.c: 355:     data_1byte_OK = 0;
  2163     01DE  01C5               	clrf	_data_1byte_OK	;volatile
  2164                           
  2165                           ;D:\yiming\00work\tundar_RX_CRC8_V01.X\main.c: 358:     switch (step) {
  2166     01DF  2A25               	goto	l1581
  2167     01E0                     l1541:
  2168                           
  2169                           ;D:\yiming\00work\tundar_RX_CRC8_V01.X\main.c: 360:       if (rx_data == 0xC8) {
  2170     01E0  30C8               	movlw	200
  2171     01E1  0675               	xorwf	_rx_data,w
  2172     01E2  1D03               	btfss	3,2
  2173     01E3  29E5               	goto	u891
  2174     01E4  29E6               	goto	u890
  2175     01E5                     u891:
  2176     01E5  29EB               	goto	l1547
  2177     01E6                     u890:
  2178     01E6                     l1543:
  2179                           
  2180                           ;D:\yiming\00work\tundar_RX_CRC8_V01.X\main.c: 361:         step = 1;
  2181     01E6  01C3               	clrf	_step
  2182     01E7  0AC3               	incf	_step,f
  2183     01E8                     l1545:
  2184                           
  2185                           ;D:\yiming\00work\tundar_RX_CRC8_V01.X\main.c: 362:         data_buf[0] = rx_data;
  2186     01E8  0875               	movf	_rx_data,w
  2187     01E9  00A0               	movwf	_data_buf
  2188                           
  2189                           ;D:\yiming\00work\tundar_RX_CRC8_V01.X\main.c: 363:       } else {
  2190     01EA  2A48               	goto	l109
  2191     01EB                     l1547:
  2192                           
  2193                           ;D:\yiming\00work\tundar_RX_CRC8_V01.X\main.c: 364:         step = 0;
  2194     01EB  01C3               	clrf	_step
  2195     01EC  2A48               	goto	l109
  2196     01ED                     l1549:
  2197                           
  2198                           ;D:\yiming\00work\tundar_RX_CRC8_V01.X\main.c: 368:       if (rx_data == 0x8B) {
  2199     01ED  308B               	movlw	139
  2200     01EE  0675               	xorwf	_rx_data,w
  2201     01EF  1D03               	btfss	3,2
  2202     01F0  29F2               	goto	u901
  2203     01F1  29F3               	goto	u900
  2204     01F2                     u901:
  2205     01F2  29EB               	goto	l1547
  2206     01F3                     u900:
  2207     01F3                     l1551:
  2208                           
  2209                           ;D:\yiming\00work\tundar_RX_CRC8_V01.X\main.c: 369:         data_buf[1] = rx_data;
  2210     01F3  0875               	movf	_rx_data,w
  2211     01F4  00A1               	movwf	_data_buf+1
  2212                           
  2213                           ;D:\yiming\00work\tundar_RX_CRC8_V01.X\main.c: 370:         step = 2;
  2214     01F5  3002               	movlw	2
  2215     01F6  00C3               	movwf	_step
  2216                           
  2217                           ;D:\yiming\00work\tundar_RX_CRC8_V01.X\main.c: 371:       } else {
  2218     01F7  2A48               	goto	l109
  2219     01F8                     l1555:
  2220                           
  2221                           ;D:\yiming\00work\tundar_RX_CRC8_V01.X\main.c: 376:       data_buf[2] = rx_data;
  2222     01F8  0875               	movf	_rx_data,w
  2223     01F9  00A2               	movwf	_data_buf+2
  2224                           
  2225                           ;D:\yiming\00work\tundar_RX_CRC8_V01.X\main.c: 377:       step = 3;
  2226     01FA  3003               	movlw	3
  2227     01FB  00C3               	movwf	_step
  2228                           
  2229                           ;D:\yiming\00work\tundar_RX_CRC8_V01.X\main.c: 378:       break;
  2230     01FC  2A48               	goto	l109
  2231     01FD                     l1557:
  2232                           
  2233                           ;D:\yiming\00work\tundar_RX_CRC8_V01.X\main.c: 380:       data_buf[3] = rx_data;
  2234     01FD  0875               	movf	_rx_data,w
  2235     01FE  00A3               	movwf	_data_buf+3
  2236                           
  2237                           ;D:\yiming\00work\tundar_RX_CRC8_V01.X\main.c: 381:       step = 4;
  2238     01FF  3004               	movlw	4
  2239     0200  00C3               	movwf	_step
  2240                           
  2241                           ;D:\yiming\00work\tundar_RX_CRC8_V01.X\main.c: 382:       break;
  2242     0201  2A48               	goto	l109
  2243     0202                     l1559:
  2244                           
  2245                           ;D:\yiming\00work\tundar_RX_CRC8_V01.X\main.c: 384:       data_buf[4] = rx_data;
  2246     0202  0875               	movf	_rx_data,w
  2247     0203  00A4               	movwf	_data_buf+4
  2248                           
  2249                           ;D:\yiming\00work\tundar_RX_CRC8_V01.X\main.c: 385:       step = 5;
  2250     0204  3005               	movlw	5
  2251     0205  00C3               	movwf	_step
  2252                           
  2253                           ;D:\yiming\00work\tundar_RX_CRC8_V01.X\main.c: 386:       break;
  2254     0206  2A48               	goto	l109
  2255     0207                     l1561:
  2256                           
  2257                           ;D:\yiming\00work\tundar_RX_CRC8_V01.X\main.c: 388:       data_buf[5] = rx_data;
  2258     0207  0875               	movf	_rx_data,w
  2259     0208  00A5               	movwf	_data_buf+5
  2260                           
  2261                           ;D:\yiming\00work\tundar_RX_CRC8_V01.X\main.c: 389:       step = 6;
  2262     0209  3006               	movlw	6
  2263     020A  00C3               	movwf	_step
  2264                           
  2265                           ;D:\yiming\00work\tundar_RX_CRC8_V01.X\main.c: 390:       break;
  2266     020B  2A48               	goto	l109
  2267     020C                     l1563:
  2268                           
  2269                           ;D:\yiming\00work\tundar_RX_CRC8_V01.X\main.c: 392:       data_buf[6] = rx_data;
  2270     020C  0875               	movf	_rx_data,w
  2271     020D  00A6               	movwf	_data_buf+6
  2272                           
  2273                           ;D:\yiming\00work\tundar_RX_CRC8_V01.X\main.c: 393:       step = 7;
  2274     020E  3007               	movlw	7
  2275     020F  00C3               	movwf	_step
  2276                           
  2277                           ;D:\yiming\00work\tundar_RX_CRC8_V01.X\main.c: 394:       break;
  2278     0210  2A48               	goto	l109
  2279     0211                     l1565:
  2280                           
  2281                           ;D:\yiming\00work\tundar_RX_CRC8_V01.X\main.c: 396:       data_buf[7] = rx_data;
  2282     0211  0875               	movf	_rx_data,w
  2283     0212  00A7               	movwf	_data_buf+7
  2284                           
  2285                           ;D:\yiming\00work\tundar_RX_CRC8_V01.X\main.c: 397:       step = 8;
  2286     0213  3008               	movlw	8
  2287     0214  00C3               	movwf	_step
  2288                           
  2289                           ;D:\yiming\00work\tundar_RX_CRC8_V01.X\main.c: 398:       break;
  2290     0215  2A48               	goto	l109
  2291     0216                     l1567:
  2292                           
  2293                           ;D:\yiming\00work\tundar_RX_CRC8_V01.X\main.c: 400:       data_buf[8] = rx_data;
  2294     0216  0875               	movf	_rx_data,w
  2295     0217  00A8               	movwf	_data_buf+8
  2296                           
  2297                           ;D:\yiming\00work\tundar_RX_CRC8_V01.X\main.c: 401:       step = 9;
  2298     0218  3009               	movlw	9
  2299     0219  00C3               	movwf	_step
  2300                           
  2301                           ;D:\yiming\00work\tundar_RX_CRC8_V01.X\main.c: 402:       break;
  2302     021A  2A48               	goto	l109
  2303     021B                     l1569:
  2304                           
  2305                           ;D:\yiming\00work\tundar_RX_CRC8_V01.X\main.c: 404:       data_buf[9] = rx_data;
  2306     021B  0875               	movf	_rx_data,w
  2307     021C  00A9               	movwf	_data_buf+9
  2308                           
  2309                           ;D:\yiming\00work\tundar_RX_CRC8_V01.X\main.c: 405:       step = 10;
  2310     021D  300A               	movlw	10
  2311     021E  00C3               	movwf	_step
  2312                           
  2313                           ;D:\yiming\00work\tundar_RX_CRC8_V01.X\main.c: 406:       break;
  2314     021F  2A48               	goto	l109
  2315     0220                     l1571:
  2316                           
  2317                           ;D:\yiming\00work\tundar_RX_CRC8_V01.X\main.c: 408:       data_buf[10] = rx_data;
  2318     0220  0875               	movf	_rx_data,w
  2319     0221  00AA               	movwf	_data_buf+10
  2320     0222                     l1573:
  2321                           
  2322                           ;D:\yiming\00work\tundar_RX_CRC8_V01.X\main.c: 409:       fFrame_OK = 1;
  2323     0222  01C4               	clrf	_fFrame_OK
  2324     0223  0AC4               	incf	_fFrame_OK,f
  2325     0224  29EB               	goto	l1547
  2326     0225                     l1581:
  2327     0225  0843               	movf	_step,w
  2328                           
  2329                           ; Switch size 1, requested type "simple"
  2330                           ; Number of cases is 11, Range of values is 0 to 10
  2331                           ; switch strategies available:
  2332                           ; Name         Instructions Cycles
  2333                           ; direct_byte           28     6 (fixed)
  2334                           ; simple_byte           34    18 (average)
  2335                           ; jumptable            260     6 (fixed)
  2336                           ;	Chosen strategy is simple_byte
  2337     0226  3A00               	xorlw	0	; case 0
  2338     0227  1903               	skipnz
  2339     0228  29E0               	goto	l1541
  2340     0229  3A01               	xorlw	1	; case 1
  2341     022A  1903               	skipnz
  2342     022B  29ED               	goto	l1549
  2343     022C  3A03               	xorlw	3	; case 2
  2344     022D  1903               	skipnz
  2345     022E  29F8               	goto	l1555
  2346     022F  3A01               	xorlw	1	; case 3
  2347     0230  1903               	skipnz
  2348     0231  29FD               	goto	l1557
  2349     0232  3A07               	xorlw	7	; case 4
  2350     0233  1903               	skipnz
  2351     0234  2A02               	goto	l1559
  2352     0235  3A01               	xorlw	1	; case 5
  2353     0236  1903               	skipnz
  2354     0237  2A07               	goto	l1561
  2355     0238  3A03               	xorlw	3	; case 6
  2356     0239  1903               	skipnz
  2357     023A  2A0C               	goto	l1563
  2358     023B  3A01               	xorlw	1	; case 7
  2359     023C  1903               	skipnz
  2360     023D  2A11               	goto	l1565
  2361     023E  3A0F               	xorlw	15	; case 8
  2362     023F  1903               	skipnz
  2363     0240  2A16               	goto	l1567
  2364     0241  3A01               	xorlw	1	; case 9
  2365     0242  1903               	skipnz
  2366     0243  2A1B               	goto	l1569
  2367     0244  3A03               	xorlw	3	; case 10
  2368     0245  1903               	skipnz
  2369     0246  2A20               	goto	l1571
  2370     0247  29EB               	goto	l1547
  2371     0248                     l109:
  2372     0248  0008               	return
  2373     0249                     __end_of_getFrameData:
  2374                           
  2375                           	psect	text2
  2376     02E5                     __ptext2:	
  2377 ;; *************** function _check_input *****************
  2378 ;; Defined at:
  2379 ;;		line 311 in file "D:\yiming\00work\tundar_RX_CRC8_V01.X\main.c"
  2380 ;; Parameters:    Size  Location     Type
  2381 ;;		None
  2382 ;; Auto vars:     Size  Location     Type
  2383 ;;		None
  2384 ;; Return value:  Size  Location     Type
  2385 ;;                  1    wreg      void 
  2386 ;; Registers used:
  2387 ;;		wreg, status,2
  2388 ;; Tracked objects:
  2389 ;;		On entry : 0/0
  2390 ;;		On exit  : 0/0
  2391 ;;		Unchanged: 0/0
  2392 ;; Data sizes:     COMMON   BANK0   BANK1   BANK2   BANK3   BANK4   BANK5   BANK6
  2393 ;;      Params:         0       0       0       0       0       0       0       0
  2394 ;;      Locals:         0       0       0       0       0       0       0       0
  2395 ;;      Temps:          0       0       0       0       0       0       0       0
  2396 ;;      Totals:         0       0       0       0       0       0       0       0
  2397 ;;Total ram usage:        0 bytes
  2398 ;; Hardware stack levels used: 1
  2399 ;; Hardware stack levels required when called: 4
  2400 ;; This function calls:
  2401 ;;		Nothing
  2402 ;; This function is called by:
  2403 ;;		_main
  2404 ;; This function uses a non-reentrant model
  2405 ;;
  2406                           
  2407     02E5                     _check_input:	
  2408                           ;psect for function _check_input
  2409                           
  2410     02E5                     l1519:	
  2411                           ;incstack = 0
  2412                           ; Regs used in _check_input: [wreg+status,2]
  2413                           
  2414                           
  2415                           ;D:\yiming\00work\tundar_RX_CRC8_V01.X\main.c: 312:   D2.Byte = data_buf[2];
  2416     02E5  0020               	movlb	0	; select bank0
  2417     02E6  0822               	movf	_data_buf+2,w
  2418     02E7  00F4               	movwf	_D2
  2419                           
  2420                           ;D:\yiming\00work\tundar_RX_CRC8_V01.X\main.c: 313:   D3.Byte = data_buf[3];
  2421     02E8  0823               	movf	_data_buf+3,w
  2422     02E9  00C2               	movwf	_D3
  2423     02EA                     l1521:
  2424                           
  2425                           ;D:\yiming\00work\tundar_RX_CRC8_V01.X\main.c: 314:   csFlag.Byte = 0;
  2426     02EA  01C1               	clrf	_csFlag
  2427     02EB                     l1523:
  2428                           
  2429                           ;D:\yiming\00work\tundar_RX_CRC8_V01.X\main.c: 317:   if (D2.RunLight == 1)
  2430     02EB  1D74               	btfss	_D2,2
  2431     02EC  2AEE               	goto	u821
  2432     02ED  2AEF               	goto	u820
  2433     02EE                     u821:
  2434     02EE  2AF1               	goto	l75
  2435     02EF                     u820:
  2436     02EF                     l1525:
  2437                           
  2438                           ;D:\yiming\00work\tundar_RX_CRC8_V01.X\main.c: 318:     csFlag.RunLight = 1;
  2439     02EF  16C1               	bsf	_csFlag,5
  2440     02F0  2AF2               	goto	l76
  2441     02F1                     l75:	
  2442                           ;D:\yiming\00work\tundar_RX_CRC8_V01.X\main.c: 319:   else
  2443                           
  2444                           
  2445                           ;D:\yiming\00work\tundar_RX_CRC8_V01.X\main.c: 320:     csFlag.RunLight = 0;
  2446     02F1  12C1               	bcf	_csFlag,5
  2447     02F2                     l76:
  2448                           
  2449                           ;D:\yiming\00work\tundar_RX_CRC8_V01.X\main.c: 323:   if (D2.DRL == 1)
  2450     02F2  1DF4               	btfss	_D2,3
  2451     02F3  2AF5               	goto	u831
  2452     02F4  2AF6               	goto	u830
  2453     02F5                     u831:
  2454     02F5  2AF8               	goto	l77
  2455     02F6                     u830:
  2456     02F6                     l1527:
  2457                           
  2458                           ;D:\yiming\00work\tundar_RX_CRC8_V01.X\main.c: 324:     csFlag.DRL = 1;
  2459     02F6  1641               	bsf	_csFlag,4
  2460     02F7  2AF9               	goto	l78
  2461     02F8                     l77:	
  2462                           ;D:\yiming\00work\tundar_RX_CRC8_V01.X\main.c: 325:   else
  2463                           
  2464                           
  2465                           ;D:\yiming\00work\tundar_RX_CRC8_V01.X\main.c: 326:     csFlag.DRL = 0;
  2466     02F8  1241               	bcf	_csFlag,4
  2467     02F9                     l78:
  2468                           
  2469                           ;D:\yiming\00work\tundar_RX_CRC8_V01.X\main.c: 329:   if (D2.LoBeam == 1)
  2470     02F9  1E74               	btfss	_D2,4
  2471     02FA  2AFC               	goto	u841
  2472     02FB  2AFD               	goto	u840
  2473     02FC                     u841:
  2474     02FC  2AFF               	goto	l79
  2475     02FD                     u840:
  2476     02FD                     l1529:
  2477                           
  2478                           ;D:\yiming\00work\tundar_RX_CRC8_V01.X\main.c: 330:     csFlag.LoBeam = 1;
  2479     02FD  15C1               	bsf	_csFlag,3
  2480     02FE  2B00               	goto	l80
  2481     02FF                     l79:	
  2482                           ;D:\yiming\00work\tundar_RX_CRC8_V01.X\main.c: 331:   else
  2483                           
  2484                           
  2485                           ;D:\yiming\00work\tundar_RX_CRC8_V01.X\main.c: 332:     csFlag.LoBeam = 0;
  2486     02FF  11C1               	bcf	_csFlag,3
  2487     0300                     l80:
  2488                           
  2489                           ;D:\yiming\00work\tundar_RX_CRC8_V01.X\main.c: 335:   if (D2.HiBeam == 1)
  2490     0300  1EF4               	btfss	_D2,5
  2491     0301  2B03               	goto	u851
  2492     0302  2B04               	goto	u850
  2493     0303                     u851:
  2494     0303  2B06               	goto	l81
  2495     0304                     u850:
  2496     0304                     l1531:
  2497                           
  2498                           ;D:\yiming\00work\tundar_RX_CRC8_V01.X\main.c: 336:     csFlag.HiBeam = 1;
  2499     0304  1541               	bsf	_csFlag,2
  2500     0305  2B07               	goto	l82
  2501     0306                     l81:	
  2502                           ;D:\yiming\00work\tundar_RX_CRC8_V01.X\main.c: 337:   else
  2503                           
  2504                           
  2505                           ;D:\yiming\00work\tundar_RX_CRC8_V01.X\main.c: 338:     csFlag.HiBeam = 0;
  2506     0306  1141               	bcf	_csFlag,2
  2507     0307                     l82:
  2508                           
  2509                           ;D:\yiming\00work\tundar_RX_CRC8_V01.X\main.c: 341:   if (D3.turnLight_L == 1)
  2510     0307  1EC2               	btfss	_D3,5
  2511     0308  2B0A               	goto	u861
  2512     0309  2B0B               	goto	u860
  2513     030A                     u861:
  2514     030A  2B0D               	goto	l83
  2515     030B                     u860:
  2516     030B                     l1533:
  2517                           
  2518                           ;D:\yiming\00work\tundar_RX_CRC8_V01.X\main.c: 342:     csFlag.turnLight_L = 1;
  2519     030B  14C1               	bsf	_csFlag,1
  2520     030C  2B0E               	goto	l84
  2521     030D                     l83:	
  2522                           ;D:\yiming\00work\tundar_RX_CRC8_V01.X\main.c: 343:   else
  2523                           
  2524                           
  2525                           ;D:\yiming\00work\tundar_RX_CRC8_V01.X\main.c: 344:     csFlag.turnLight_L = 0;
  2526     030D  10C1               	bcf	_csFlag,1
  2527     030E                     l84:
  2528                           
  2529                           ;D:\yiming\00work\tundar_RX_CRC8_V01.X\main.c: 347:   if (D3.turnLight_R == 1)
  2530     030E  1F42               	btfss	_D3,6
  2531     030F  2B11               	goto	u871
  2532     0310  2B12               	goto	u870
  2533     0311                     u871:
  2534     0311  2B14               	goto	l85
  2535     0312                     u870:
  2536     0312                     l1535:
  2537                           
  2538                           ;D:\yiming\00work\tundar_RX_CRC8_V01.X\main.c: 348:     csFlag.turnLight_R = 1;
  2539     0312  1441               	bsf	_csFlag,0
  2540     0313  2B15               	goto	l87
  2541     0314                     l85:	
  2542                           ;D:\yiming\00work\tundar_RX_CRC8_V01.X\main.c: 349:   else
  2543                           
  2544                           
  2545                           ;D:\yiming\00work\tundar_RX_CRC8_V01.X\main.c: 350:     csFlag.turnLight_R = 0;
  2546     0314  1041               	bcf	_csFlag,0
  2547     0315                     l87:
  2548     0315  0008               	return
  2549     0316                     __end_of_check_input:
  2550                           
  2551                           	psect	text3
  2552     0375                     __ptext3:	
  2553 ;; *************** function _SYSTEM_Initialize *****************
  2554 ;; Defined at:
  2555 ;;		line 50 in file "D:\yiming\00work\tundar_RX_CRC8_V01.X\mcc_generated_files\mcc.c"
  2556 ;; Parameters:    Size  Location     Type
  2557 ;;		None
  2558 ;; Auto vars:     Size  Location     Type
  2559 ;;		None
  2560 ;; Return value:  Size  Location     Type
  2561 ;;                  1    wreg      void 
  2562 ;; Registers used:
  2563 ;;		wreg, status,2, status,0, pclath, cstack
  2564 ;; Tracked objects:
  2565 ;;		On entry : 0/0
  2566 ;;		On exit  : 0/0
  2567 ;;		Unchanged: 0/0
  2568 ;; Data sizes:     COMMON   BANK0   BANK1   BANK2   BANK3   BANK4   BANK5   BANK6
  2569 ;;      Params:         0       0       0       0       0       0       0       0
  2570 ;;      Locals:         0       0       0       0       0       0       0       0
  2571 ;;      Temps:          0       0       0       0       0       0       0       0
  2572 ;;      Totals:         0       0       0       0       0       0       0       0
  2573 ;;Total ram usage:        0 bytes
  2574 ;; Hardware stack levels used: 1
  2575 ;; Hardware stack levels required when called: 6
  2576 ;; This function calls:
  2577 ;;		_ECCP3_Initialize
  2578 ;;		_OSCILLATOR_Initialize
  2579 ;;		_PIN_MANAGER_Initialize
  2580 ;;		_TMR0_Initialize
  2581 ;;		_TMR1_Initialize
  2582 ;;		_WDT_Initialize
  2583 ;; This function is called by:
  2584 ;;		_main
  2585 ;; This function uses a non-reentrant model
  2586 ;;
  2587                           
  2588     0375                     _SYSTEM_Initialize:	
  2589                           ;psect for function _SYSTEM_Initialize
  2590                           
  2591     0375                     l1583:	
  2592                           ;incstack = 0
  2593                           ; Regs used in _SYSTEM_Initialize: [wreg+status,2+status,0+pclath+cstack]
  2594                           
  2595                           
  2596                           ;D:\yiming\00work\tundar_RX_CRC8_V01.X\mcc_generated_files\mcc.c: 53:     PIN_MANAGER_In
      +                          itialize();
  2597     0375  3183  2316  3183   	fcall	_PIN_MANAGER_Initialize
  2598                           
  2599                           ;D:\yiming\00work\tundar_RX_CRC8_V01.X\mcc_generated_files\mcc.c: 54:     OSCILLATOR_Ini
      +                          tialize();
  2600     0378  3183  23C0  3183   	fcall	_OSCILLATOR_Initialize
  2601                           
  2602                           ;D:\yiming\00work\tundar_RX_CRC8_V01.X\mcc_generated_files\mcc.c: 55:     WDT_Initialize
      +                          ();
  2603     037B  3183  23E8  3183   	fcall	_WDT_Initialize
  2604                           
  2605                           ;D:\yiming\00work\tundar_RX_CRC8_V01.X\mcc_generated_files\mcc.c: 56:     ECCP3_Initiali
      +                          ze();
  2606     037E  3183  23CC  3183   	fcall	_ECCP3_Initialize
  2607                           
  2608                           ;D:\yiming\00work\tundar_RX_CRC8_V01.X\mcc_generated_files\mcc.c: 57:     TMR1_Initializ
      +                          e();
  2609     0381  3183  23A6  3183   	fcall	_TMR1_Initialize
  2610                           
  2611                           ;D:\yiming\00work\tundar_RX_CRC8_V01.X\mcc_generated_files\mcc.c: 58:     TMR0_Initializ
      +                          e();
  2612     0384  3183  2361  3183   	fcall	_TMR0_Initialize
  2613     0387                     l226:
  2614     0387  0008               	return
  2615     0388                     __end_of_SYSTEM_Initialize:
  2616                           
  2617                           	psect	text4
  2618     03E8                     __ptext4:	
  2619 ;; *************** function _WDT_Initialize *****************
  2620 ;; Defined at:
  2621 ;;		line 75 in file "D:\yiming\00work\tundar_RX_CRC8_V01.X\mcc_generated_files\mcc.c"
  2622 ;; Parameters:    Size  Location     Type
  2623 ;;		None
  2624 ;; Auto vars:     Size  Location     Type
  2625 ;;		None
  2626 ;; Return value:  Size  Location     Type
  2627 ;;                  1    wreg      void 
  2628 ;; Registers used:
  2629 ;;		wreg
  2630 ;; Tracked objects:
  2631 ;;		On entry : 0/0
  2632 ;;		On exit  : 0/0
  2633 ;;		Unchanged: 0/0
  2634 ;; Data sizes:     COMMON   BANK0   BANK1   BANK2   BANK3   BANK4   BANK5   BANK6
  2635 ;;      Params:         0       0       0       0       0       0       0       0
  2636 ;;      Locals:         0       0       0       0       0       0       0       0
  2637 ;;      Temps:          0       0       0       0       0       0       0       0
  2638 ;;      Totals:         0       0       0       0       0       0       0       0
  2639 ;;Total ram usage:        0 bytes
  2640 ;; Hardware stack levels used: 1
  2641 ;; Hardware stack levels required when called: 4
  2642 ;; This function calls:
  2643 ;;		Nothing
  2644 ;; This function is called by:
  2645 ;;		_SYSTEM_Initialize
  2646 ;; This function uses a non-reentrant model
  2647 ;;
  2648                           
  2649     03E8                     _WDT_Initialize:	
  2650                           ;psect for function _WDT_Initialize
  2651                           
  2652     03E8                     l1463:	
  2653                           ;incstack = 0
  2654                           ; Regs used in _WDT_Initialize: [wreg]
  2655                           
  2656                           
  2657                           ;D:\yiming\00work\tundar_RX_CRC8_V01.X\mcc_generated_files\mcc.c: 78:     WDTCON = 0x16;
  2658     03E8  3016               	movlw	22
  2659     03E9  0021               	movlb	1	; select bank1
  2660     03EA  0097               	movwf	23	;volatile
  2661     03EB                     l235:
  2662     03EB  0008               	return
  2663     03EC                     __end_of_WDT_Initialize:
  2664                           
  2665                           	psect	text5
  2666     03A6                     __ptext5:	
  2667 ;; *************** function _TMR1_Initialize *****************
  2668 ;; Defined at:
  2669 ;;		line 63 in file "D:\yiming\00work\tundar_RX_CRC8_V01.X\mcc_generated_files\tmr1.c"
  2670 ;; Parameters:    Size  Location     Type
  2671 ;;		None
  2672 ;; Auto vars:     Size  Location     Type
  2673 ;;		None
  2674 ;; Return value:  Size  Location     Type
  2675 ;;                  1    wreg      void 
  2676 ;; Registers used:
  2677 ;;		wreg, status,2
  2678 ;; Tracked objects:
  2679 ;;		On entry : 0/0
  2680 ;;		On exit  : 0/0
  2681 ;;		Unchanged: 0/0
  2682 ;; Data sizes:     COMMON   BANK0   BANK1   BANK2   BANK3   BANK4   BANK5   BANK6
  2683 ;;      Params:         0       0       0       0       0       0       0       0
  2684 ;;      Locals:         0       0       0       0       0       0       0       0
  2685 ;;      Temps:          0       0       0       0       0       0       0       0
  2686 ;;      Totals:         0       0       0       0       0       0       0       0
  2687 ;;Total ram usage:        0 bytes
  2688 ;; Hardware stack levels used: 1
  2689 ;; Hardware stack levels required when called: 4
  2690 ;; This function calls:
  2691 ;;		Nothing
  2692 ;; This function is called by:
  2693 ;;		_SYSTEM_Initialize
  2694 ;; This function uses a non-reentrant model
  2695 ;;
  2696                           
  2697     03A6                     _TMR1_Initialize:	
  2698                           ;psect for function _TMR1_Initialize
  2699                           
  2700     03A6                     l1465:	
  2701                           ;incstack = 0
  2702                           ; Regs used in _TMR1_Initialize: [wreg+status,2]
  2703                           
  2704                           
  2705                           ;D:\yiming\00work\tundar_RX_CRC8_V01.X\mcc_generated_files\tmr1.c: 68:     T1GCON = 0x10
      +                          ;
  2706     03A6  3010               	movlw	16
  2707     03A7  0020               	movlb	0	; select bank0
  2708     03A8  0099               	movwf	25	;volatile
  2709     03A9                     l1467:
  2710                           
  2711                           ;D:\yiming\00work\tundar_RX_CRC8_V01.X\mcc_generated_files\tmr1.c: 71:     TMR1H = 0x00;
  2712     03A9  0197               	clrf	23	;volatile
  2713     03AA                     l1469:
  2714                           
  2715                           ;D:\yiming\00work\tundar_RX_CRC8_V01.X\mcc_generated_files\tmr1.c: 74:     TMR1L = 0x00;
  2716     03AA  0196               	clrf	22	;volatile
  2717     03AB                     l1471:
  2718                           
  2719                           ;D:\yiming\00work\tundar_RX_CRC8_V01.X\mcc_generated_files\tmr1.c: 77:     PIR1bits.TMR1
      +                          IF = 0;
  2720     03AB  1011               	bcf	17,0	;volatile
  2721                           
  2722                           ;D:\yiming\00work\tundar_RX_CRC8_V01.X\mcc_generated_files\tmr1.c: 80:     timer1ReloadV
      +                          al=(uint16_t)((TMR1H << 8) | TMR1L);
  2723     03AC  0817               	movf	23,w	;volatile
  2724     03AD  00AC               	movwf	_timer1ReloadVal+1	;volatile
  2725     03AE  0816               	movf	22,w	;volatile
  2726     03AF  00AB               	movwf	_timer1ReloadVal	;volatile
  2727                           
  2728                           ;D:\yiming\00work\tundar_RX_CRC8_V01.X\mcc_generated_files\tmr1.c: 83:     T1CON = 0x01;
  2729     03B0  3001               	movlw	1
  2730     03B1  0098               	movwf	24	;volatile
  2731     03B2                     l319:
  2732     03B2  0008               	return
  2733     03B3                     __end_of_TMR1_Initialize:
  2734                           
  2735                           	psect	text6
  2736     0361                     __ptext6:	
  2737 ;; *************** function _TMR0_Initialize *****************
  2738 ;; Defined at:
  2739 ;;		line 64 in file "D:\yiming\00work\tundar_RX_CRC8_V01.X\mcc_generated_files\tmr0.c"
  2740 ;; Parameters:    Size  Location     Type
  2741 ;;		None
  2742 ;; Auto vars:     Size  Location     Type
  2743 ;;		None
  2744 ;; Return value:  Size  Location     Type
  2745 ;;                  1    wreg      void 
  2746 ;; Registers used:
  2747 ;;		wreg, status,2, status,0, pclath, cstack
  2748 ;; Tracked objects:
  2749 ;;		On entry : 0/0
  2750 ;;		On exit  : 0/0
  2751 ;;		Unchanged: 0/0
  2752 ;; Data sizes:     COMMON   BANK0   BANK1   BANK2   BANK3   BANK4   BANK5   BANK6
  2753 ;;      Params:         0       0       0       0       0       0       0       0
  2754 ;;      Locals:         0       0       0       0       0       0       0       0
  2755 ;;      Temps:          0       0       0       0       0       0       0       0
  2756 ;;      Totals:         0       0       0       0       0       0       0       0
  2757 ;;Total ram usage:        0 bytes
  2758 ;; Hardware stack levels used: 1
  2759 ;; Hardware stack levels required when called: 5
  2760 ;; This function calls:
  2761 ;;		_TMR0_SetInterruptHandler
  2762 ;; This function is called by:
  2763 ;;		_SYSTEM_Initialize
  2764 ;; This function uses a non-reentrant model
  2765 ;;
  2766                           
  2767     0361                     _TMR0_Initialize:	
  2768                           ;psect for function _TMR0_Initialize
  2769                           
  2770     0361                     l1473:	
  2771                           ;incstack = 0
  2772                           ; Regs used in _TMR0_Initialize: [wreg+status,2+status,0+pclath+cstack]
  2773                           
  2774                           
  2775                           ;D:\yiming\00work\tundar_RX_CRC8_V01.X\mcc_generated_files\tmr0.c: 69:     OPTION_REG = 
      +                          (uint8_t)((OPTION_REG & 0xC0) | (0xD4 & 0x3F));
  2776     0361  0021               	movlb	1	; select bank1
  2777     0362  0815               	movf	21,w	;volatile
  2778     0363  39C0               	andlw	192
  2779     0364  3814               	iorlw	20
  2780     0365  0095               	movwf	21	;volatile
  2781     0366                     l1475:
  2782                           
  2783                           ;D:\yiming\00work\tundar_RX_CRC8_V01.X\mcc_generated_files\tmr0.c: 72:     TMR0 = 0x06;
  2784     0366  3006               	movlw	6
  2785     0367  0020               	movlb	0	; select bank0
  2786     0368  0095               	movwf	21	;volatile
  2787     0369                     l1477:
  2788                           
  2789                           ;D:\yiming\00work\tundar_RX_CRC8_V01.X\mcc_generated_files\tmr0.c: 75:     timer0ReloadV
      +                          al= 6;
  2790     0369  3006               	movlw	6
  2791     036A  00B5               	movwf	_timer0ReloadVal	;volatile
  2792     036B                     l1479:
  2793                           
  2794                           ;D:\yiming\00work\tundar_RX_CRC8_V01.X\mcc_generated_files\tmr0.c: 78:     INTCONbits.TM
      +                          R0IF = 0;
  2795     036B  110B               	bcf	11,2	;volatile
  2796     036C                     l1481:
  2797                           
  2798                           ;D:\yiming\00work\tundar_RX_CRC8_V01.X\mcc_generated_files\tmr0.c: 81:     INTCONbits.TM
      +                          R0IE = 1;
  2799     036C  168B               	bsf	11,5	;volatile
  2800     036D                     l1483:
  2801                           
  2802                           ;D:\yiming\00work\tundar_RX_CRC8_V01.X\mcc_generated_files\tmr0.c: 84:     TMR0_SetInter
      +                          ruptHandler(TMR0_DefaultInterruptHandler);
  2803     036D  30EC               	movlw	low _TMR0_DefaultInterruptHandler
  2804     036E  00C6               	movwf	TMR0_SetInterruptHandler@InterruptHandler
  2805     036F  3003               	movlw	high _TMR0_DefaultInterruptHandler
  2806     0370  00C7               	movwf	TMR0_SetInterruptHandler@InterruptHandler+1
  2807     0371  3183  23E2  3183   	fcall	_TMR0_SetInterruptHandler
  2808     0374                     l288:
  2809     0374  0008               	return
  2810     0375                     __end_of_TMR0_Initialize:
  2811                           
  2812                           	psect	text7
  2813     03E2                     __ptext7:	
  2814 ;; *************** function _TMR0_SetInterruptHandler *****************
  2815 ;; Defined at:
  2816 ;;		line 140 in file "D:\yiming\00work\tundar_RX_CRC8_V01.X\mcc_generated_files\tmr0.c"
  2817 ;; Parameters:    Size  Location     Type
  2818 ;;  InterruptHan    2    0[BANK0 ] PTR FTN()void 
  2819 ;;		 -> TMR0_DefaultInterruptHandler(1), TMR0_EvenHandler(1), 
  2820 ;; Auto vars:     Size  Location     Type
  2821 ;;		None
  2822 ;; Return value:  Size  Location     Type
  2823 ;;                  1    wreg      void 
  2824 ;; Registers used:
  2825 ;;		wreg
  2826 ;; Tracked objects:
  2827 ;;		On entry : 0/0
  2828 ;;		On exit  : 0/0
  2829 ;;		Unchanged: 0/0
  2830 ;; Data sizes:     COMMON   BANK0   BANK1   BANK2   BANK3   BANK4   BANK5   BANK6
  2831 ;;      Params:         0       2       0       0       0       0       0       0
  2832 ;;      Locals:         0       0       0       0       0       0       0       0
  2833 ;;      Temps:          0       0       0       0       0       0       0       0
  2834 ;;      Totals:         0       2       0       0       0       0       0       0
  2835 ;;Total ram usage:        2 bytes
  2836 ;; Hardware stack levels used: 1
  2837 ;; Hardware stack levels required when called: 4
  2838 ;; This function calls:
  2839 ;;		Nothing
  2840 ;; This function is called by:
  2841 ;;		_main
  2842 ;;		_TMR0_Initialize
  2843 ;; This function uses a non-reentrant model
  2844 ;;
  2845                           
  2846     03E2                     _TMR0_SetInterruptHandler:	
  2847                           ;psect for function _TMR0_SetInterruptHandler
  2848                           
  2849     03E2                     l1425:	
  2850                           ;incstack = 0
  2851                           ; Regs used in _TMR0_SetInterruptHandler: [wreg]
  2852                           
  2853                           
  2854                           ;D:\yiming\00work\tundar_RX_CRC8_V01.X\mcc_generated_files\tmr0.c: 141:     TMR0_Interru
      +                          ptHandler = InterruptHandler;
  2855     03E2  0020               	movlb	0	; select bank0
  2856     03E3  0847               	movf	TMR0_SetInterruptHandler@InterruptHandler+1,w
  2857     03E4  00B0               	movwf	_TMR0_InterruptHandler+1
  2858     03E5  0846               	movf	TMR0_SetInterruptHandler@InterruptHandler,w
  2859     03E6  00AF               	movwf	_TMR0_InterruptHandler
  2860     03E7                     l301:
  2861     03E7  0008               	return
  2862     03E8                     __end_of_TMR0_SetInterruptHandler:
  2863                           
  2864                           	psect	text8
  2865     0316                     __ptext8:	
  2866 ;; *************** function _PIN_MANAGER_Initialize *****************
  2867 ;; Defined at:
  2868 ;;		line 55 in file "D:\yiming\00work\tundar_RX_CRC8_V01.X\mcc_generated_files\pin_manager.c"
  2869 ;; Parameters:    Size  Location     Type
  2870 ;;		None
  2871 ;; Auto vars:     Size  Location     Type
  2872 ;;		None
  2873 ;; Return value:  Size  Location     Type
  2874 ;;                  1    wreg      void 
  2875 ;; Registers used:
  2876 ;;		wreg, status,2
  2877 ;; Tracked objects:
  2878 ;;		On entry : 0/0
  2879 ;;		On exit  : 0/0
  2880 ;;		Unchanged: 0/0
  2881 ;; Data sizes:     COMMON   BANK0   BANK1   BANK2   BANK3   BANK4   BANK5   BANK6
  2882 ;;      Params:         0       0       0       0       0       0       0       0
  2883 ;;      Locals:         0       0       0       0       0       0       0       0
  2884 ;;      Temps:          0       0       0       0       0       0       0       0
  2885 ;;      Totals:         0       0       0       0       0       0       0       0
  2886 ;;Total ram usage:        0 bytes
  2887 ;; Hardware stack levels used: 1
  2888 ;; Hardware stack levels required when called: 4
  2889 ;; This function calls:
  2890 ;;		Nothing
  2891 ;; This function is called by:
  2892 ;;		_SYSTEM_Initialize
  2893 ;; This function uses a non-reentrant model
  2894 ;;
  2895                           
  2896     0316                     _PIN_MANAGER_Initialize:	
  2897                           ;psect for function _PIN_MANAGER_Initialize
  2898                           
  2899     0316                     l1437:	
  2900                           ;incstack = 0
  2901                           ; Regs used in _PIN_MANAGER_Initialize: [wreg+status,2]
  2902                           
  2903                           
  2904                           ;D:\yiming\00work\tundar_RX_CRC8_V01.X\mcc_generated_files\pin_manager.c: 60:     LATE =
      +                           0x00;
  2905     0316  0022               	movlb	2	; select bank2
  2906     0317  0190               	clrf	16	;volatile
  2907                           
  2908                           ;D:\yiming\00work\tundar_RX_CRC8_V01.X\mcc_generated_files\pin_manager.c: 61:     LATA =
      +                           0x00;
  2909     0318  018C               	clrf	12	;volatile
  2910     0319                     l1439:
  2911                           
  2912                           ;D:\yiming\00work\tundar_RX_CRC8_V01.X\mcc_generated_files\pin_manager.c: 62:     LATB =
      +                           0x40;
  2913     0319  3040               	movlw	64
  2914     031A  008D               	movwf	13	;volatile
  2915     031B                     l1441:
  2916                           
  2917                           ;D:\yiming\00work\tundar_RX_CRC8_V01.X\mcc_generated_files\pin_manager.c: 63:     LATC =
      +                           0x00;
  2918     031B  018E               	clrf	14	;volatile
  2919                           
  2920                           ;D:\yiming\00work\tundar_RX_CRC8_V01.X\mcc_generated_files\pin_manager.c: 68:     TRISE 
      +                          = 0x08;
  2921     031C  3008               	movlw	8
  2922     031D  0021               	movlb	1	; select bank1
  2923     031E  0090               	movwf	16	;volatile
  2924                           
  2925                           ;D:\yiming\00work\tundar_RX_CRC8_V01.X\mcc_generated_files\pin_manager.c: 69:     TRISA 
      +                          = 0xF6;
  2926     031F  30F6               	movlw	246
  2927     0320  008C               	movwf	12	;volatile
  2928     0321                     l1443:
  2929                           
  2930                           ;D:\yiming\00work\tundar_RX_CRC8_V01.X\mcc_generated_files\pin_manager.c: 70:     TRISB 
      +                          = 0x00;
  2931     0321  018D               	clrf	13	;volatile
  2932     0322                     l1445:
  2933                           
  2934                           ;D:\yiming\00work\tundar_RX_CRC8_V01.X\mcc_generated_files\pin_manager.c: 71:     TRISC 
      +                          = 0xFD;
  2935     0322  30FD               	movlw	253
  2936     0323  008E               	movwf	14	;volatile
  2937                           
  2938                           ;D:\yiming\00work\tundar_RX_CRC8_V01.X\mcc_generated_files\pin_manager.c: 76:     ANSELB
      +                           = 0x00;
  2939     0324  0023               	movlb	3	; select bank3
  2940     0325  018D               	clrf	13	;volatile
  2941     0326                     l1447:
  2942                           
  2943                           ;D:\yiming\00work\tundar_RX_CRC8_V01.X\mcc_generated_files\pin_manager.c: 77:     ANSELA
      +                           = 0x36;
  2944     0326  3036               	movlw	54
  2945     0327  008C               	movwf	12	;volatile
  2946     0328                     l1449:
  2947                           
  2948                           ;D:\yiming\00work\tundar_RX_CRC8_V01.X\mcc_generated_files\pin_manager.c: 82:     WPUE =
      +                           0x00;
  2949     0328  0024               	movlb	4	; select bank4
  2950     0329  0190               	clrf	16	;volatile
  2951     032A                     l1451:
  2952                           
  2953                           ;D:\yiming\00work\tundar_RX_CRC8_V01.X\mcc_generated_files\pin_manager.c: 83:     WPUB =
      +                           0x00;
  2954     032A  018D               	clrf	13	;volatile
  2955     032B                     l1453:
  2956                           
  2957                           ;D:\yiming\00work\tundar_RX_CRC8_V01.X\mcc_generated_files\pin_manager.c: 84:     OPTION
      +                          _REGbits.nWPUEN = 0;
  2958     032B  0021               	movlb	1	; select bank1
  2959     032C  1395               	bcf	21,7	;volatile
  2960     032D                     l1455:
  2961                           
  2962                           ;D:\yiming\00work\tundar_RX_CRC8_V01.X\mcc_generated_files\pin_manager.c: 90:     APFCON
      +                           = 0x00;
  2963     032D  0022               	movlb	2	; select bank2
  2964     032E  019D               	clrf	29	;volatile
  2965     032F                     l266:
  2966     032F  0008               	return
  2967     0330                     __end_of_PIN_MANAGER_Initialize:
  2968                           
  2969                           	psect	text9
  2970     03C0                     __ptext9:	
  2971 ;; *************** function _OSCILLATOR_Initialize *****************
  2972 ;; Defined at:
  2973 ;;		line 61 in file "D:\yiming\00work\tundar_RX_CRC8_V01.X\mcc_generated_files\mcc.c"
  2974 ;; Parameters:    Size  Location     Type
  2975 ;;		None
  2976 ;; Auto vars:     Size  Location     Type
  2977 ;;		None
  2978 ;; Return value:  Size  Location     Type
  2979 ;;                  1    wreg      void 
  2980 ;; Registers used:
  2981 ;;		wreg, status,2
  2982 ;; Tracked objects:
  2983 ;;		On entry : 0/0
  2984 ;;		On exit  : 0/0
  2985 ;;		Unchanged: 0/0
  2986 ;; Data sizes:     COMMON   BANK0   BANK1   BANK2   BANK3   BANK4   BANK5   BANK6
  2987 ;;      Params:         0       0       0       0       0       0       0       0
  2988 ;;      Locals:         0       0       0       0       0       0       0       0
  2989 ;;      Temps:          0       0       0       0       0       0       0       0
  2990 ;;      Totals:         0       0       0       0       0       0       0       0
  2991 ;;Total ram usage:        0 bytes
  2992 ;; Hardware stack levels used: 1
  2993 ;; Hardware stack levels required when called: 4
  2994 ;; This function calls:
  2995 ;;		Nothing
  2996 ;; This function is called by:
  2997 ;;		_SYSTEM_Initialize
  2998 ;; This function uses a non-reentrant model
  2999 ;;
  3000                           
  3001     03C0                     _OSCILLATOR_Initialize:	
  3002                           ;psect for function _OSCILLATOR_Initialize
  3003                           
  3004     03C0                     l1457:	
  3005                           ;incstack = 0
  3006                           ; Regs used in _OSCILLATOR_Initialize: [wreg+status,2]
  3007                           
  3008                           
  3009                           ;D:\yiming\00work\tundar_RX_CRC8_V01.X\mcc_generated_files\mcc.c: 64:     OSCCON = 0x70;
  3010     03C0  3070               	movlw	112
  3011     03C1  0021               	movlb	1	; select bank1
  3012     03C2  0099               	movwf	25	;volatile
  3013     03C3                     l1459:
  3014                           
  3015                           ;D:\yiming\00work\tundar_RX_CRC8_V01.X\mcc_generated_files\mcc.c: 66:     OSCTUNE = 0x00
      +                          ;
  3016     03C3  0198               	clrf	24	;volatile
  3017     03C4                     l1461:
  3018                           
  3019                           ;D:\yiming\00work\tundar_RX_CRC8_V01.X\mcc_generated_files\mcc.c: 68:     BORCON = 0x00;
  3020     03C4  0022               	movlb	2	; select bank2
  3021     03C5  0196               	clrf	22	;volatile
  3022     03C6                     l229:	
  3023                           ;D:\yiming\00work\tundar_RX_CRC8_V01.X\mcc_generated_files\mcc.c: 71:     {;D:\yiming\00
      +                          work\tundar_RX_CRC8_V01.X\mcc_generated_files\mcc.c: 72:     }
  3024                           
  3025                           
  3026                           ;D:\yiming\00work\tundar_RX_CRC8_V01.X\mcc_generated_files\mcc.c: 70:     while(PLLR == 
      +                          0)
  3027     03C6  0021               	movlb	1	; select bank1
  3028     03C7  1F1A               	btfss	26,6	;volatile
  3029     03C8  2BCA               	goto	u731
  3030     03C9  2BCB               	goto	u730
  3031     03CA                     u731:
  3032     03CA  2BC6               	goto	l229
  3033     03CB                     u730:
  3034     03CB                     l232:
  3035     03CB  0008               	return
  3036     03CC                     __end_of_OSCILLATOR_Initialize:
  3037                           
  3038                           	psect	text10
  3039     03CC                     __ptext10:	
  3040 ;; *************** function _ECCP3_Initialize *****************
  3041 ;; Defined at:
  3042 ;;		line 59 in file "D:\yiming\00work\tundar_RX_CRC8_V01.X\mcc_generated_files\eccp3.c"
  3043 ;; Parameters:    Size  Location     Type
  3044 ;;		None
  3045 ;; Auto vars:     Size  Location     Type
  3046 ;;		None
  3047 ;; Return value:  Size  Location     Type
  3048 ;;                  1    wreg      void 
  3049 ;; Registers used:
  3050 ;;		wreg, status,2
  3051 ;; Tracked objects:
  3052 ;;		On entry : 0/0
  3053 ;;		On exit  : 0/0
  3054 ;;		Unchanged: 0/0
  3055 ;; Data sizes:     COMMON   BANK0   BANK1   BANK2   BANK3   BANK4   BANK5   BANK6
  3056 ;;      Params:         0       0       0       0       0       0       0       0
  3057 ;;      Locals:         0       0       0       0       0       0       0       0
  3058 ;;      Temps:          0       0       0       0       0       0       0       0
  3059 ;;      Totals:         0       0       0       0       0       0       0       0
  3060 ;;Total ram usage:        0 bytes
  3061 ;; Hardware stack levels used: 1
  3062 ;; Hardware stack levels required when called: 4
  3063 ;; This function calls:
  3064 ;;		Nothing
  3065 ;; This function is called by:
  3066 ;;		_SYSTEM_Initialize
  3067 ;; This function uses a non-reentrant model
  3068 ;;
  3069                           
  3070     03CC                     _ECCP3_Initialize:	
  3071                           ;psect for function _ECCP3_Initialize
  3072                           
  3073     03CC                     l1427:	
  3074                           ;incstack = 0
  3075                           ; Regs used in _ECCP3_Initialize: [wreg+status,2]
  3076                           
  3077                           
  3078                           ;D:\yiming\00work\tundar_RX_CRC8_V01.X\mcc_generated_files\eccp3.c: 64:  CCP3CON = 0x05;
  3079     03CC  3005               	movlw	5
  3080     03CD  0026               	movlb	6	; select bank6
  3081     03CE  0093               	movwf	19	;volatile
  3082     03CF                     l1429:
  3083                           
  3084                           ;D:\yiming\00work\tundar_RX_CRC8_V01.X\mcc_generated_files\eccp3.c: 67:  CCPR3H = 0x00;
  3085     03CF  0192               	clrf	18	;volatile
  3086     03D0                     l1431:
  3087                           
  3088                           ;D:\yiming\00work\tundar_RX_CRC8_V01.X\mcc_generated_files\eccp3.c: 70:  CCPR3L = 0x00;
  3089     03D0  0191               	clrf	17	;volatile
  3090     03D1                     l1433:
  3091                           
  3092                           ;D:\yiming\00work\tundar_RX_CRC8_V01.X\mcc_generated_files\eccp3.c: 73:     PIR3bits.CCP
      +                          3IF = 0;
  3093     03D1  0020               	movlb	0	; select bank0
  3094     03D2  1213               	bcf	19,4	;volatile
  3095     03D3                     l1435:
  3096                           
  3097                           ;D:\yiming\00work\tundar_RX_CRC8_V01.X\mcc_generated_files\eccp3.c: 76:     PIE3bits.CCP
      +                          3IE = 1;
  3098     03D3  0021               	movlb	1	; select bank1
  3099     03D4  1613               	bsf	19,4	;volatile
  3100     03D5                     l177:
  3101     03D5  0008               	return
  3102     03D6                     __end_of_ECCP3_Initialize:
  3103                           
  3104                           	psect	text11
  3105     0249                     __ptext11:	
  3106 ;; *************** function _LED_output *****************
  3107 ;; Defined at:
  3108 ;;		line 255 in file "D:\yiming\00work\tundar_RX_CRC8_V01.X\main.c"
  3109 ;; Parameters:    Size  Location     Type
  3110 ;;		None
  3111 ;; Auto vars:     Size  Location     Type
  3112 ;;  i               1    2[BANK0 ] unsigned char 
  3113 ;;  crc8            1    1[BANK0 ] unsigned char 
  3114 ;; Return value:  Size  Location     Type
  3115 ;;                  1    wreg      void 
  3116 ;; Registers used:
  3117 ;;		wreg, fsr1l, fsr1h, status,2, status,0
  3118 ;; Tracked objects:
  3119 ;;		On entry : 0/0
  3120 ;;		On exit  : 0/0
  3121 ;;		Unchanged: 0/0
  3122 ;; Data sizes:     COMMON   BANK0   BANK1   BANK2   BANK3   BANK4   BANK5   BANK6
  3123 ;;      Params:         0       0       0       0       0       0       0       0
  3124 ;;      Locals:         0       2       0       0       0       0       0       0
  3125 ;;      Temps:          0       1       0       0       0       0       0       0
  3126 ;;      Totals:         0       3       0       0       0       0       0       0
  3127 ;;Total ram usage:        3 bytes
  3128 ;; Hardware stack levels used: 1
  3129 ;; Hardware stack levels required when called: 4
  3130 ;; This function calls:
  3131 ;;		Nothing
  3132 ;; This function is called by:
  3133 ;;		_main
  3134 ;; This function uses a non-reentrant model
  3135 ;;
  3136                           
  3137     0249                     _LED_output:	
  3138                           ;psect for function _LED_output
  3139                           
  3140     0249                     l1485:	
  3141                           ;incstack = 0
  3142                           ; Regs used in _LED_output: [wreg+fsr1l+fsr1h+status,2+status,0]
  3143                           
  3144                           
  3145                           ;D:\yiming\00work\tundar_RX_CRC8_V01.X\main.c: 256:   uint8_t crc8 = CS[csFlag.Byte];
  3146     0249  0020               	movlb	0	; select bank0
  3147     024A  0841               	movf	_csFlag,w
  3148     024B  3EA0               	addlw	(low (_CS| 0))& (0+255)
  3149     024C  0086               	movwf	6
  3150     024D  0187               	clrf	7
  3151     024E  0801               	movf	1,w
  3152     024F  00C7               	movwf	LED_output@crc8
  3153     0250                     l1487:
  3154                           
  3155                           ;D:\yiming\00work\tundar_RX_CRC8_V01.X\main.c: 258:   if (data_buf[10] != crc8)
  3156     0250  082A               	movf	_data_buf+10,w
  3157     0251  0647               	xorwf	LED_output@crc8,w
  3158     0252  1903               	skipnz
  3159     0253  2A55               	goto	u741
  3160     0254  2A56               	goto	u740
  3161     0255                     u741:
  3162     0255  2A57               	goto	l1491
  3163     0256                     u740:
  3164     0256  2AA4               	goto	l58
  3165     0257                     l1491:
  3166                           
  3167                           ;D:\yiming\00work\tundar_RX_CRC8_V01.X\main.c: 266:   T10MS_CNT = 0;
  3168     0257  01C0               	clrf	_T10MS_CNT	;volatile
  3169     0258                     l1493:
  3170                           
  3171                           ;D:\yiming\00work\tundar_RX_CRC8_V01.X\main.c: 269:   if (csFlag.RunLight == 1) {
  3172     0258  1EC1               	btfss	_csFlag,5
  3173     0259  2A5B               	goto	u751
  3174     025A  2A5C               	goto	u750
  3175     025B                     u751:
  3176     025B  2A5F               	goto	l59
  3177     025C                     u750:
  3178     025C                     l1495:
  3179                           
  3180                           ;D:\yiming\00work\tundar_RX_CRC8_V01.X\main.c: 270:     LATB5 = 1;
  3181     025C  0022               	movlb	2	; select bank2
  3182     025D  168D               	bsf	13,5	;volatile
  3183                           
  3184                           ;D:\yiming\00work\tundar_RX_CRC8_V01.X\main.c: 271:   } else {
  3185     025E  2A61               	goto	l60
  3186     025F                     l59:
  3187                           
  3188                           ;D:\yiming\00work\tundar_RX_CRC8_V01.X\main.c: 272:     LATB5 = 0;
  3189     025F  0022               	movlb	2	; select bank2
  3190     0260  128D               	bcf	13,5	;volatile
  3191     0261                     l60:	
  3192                           ;D:\yiming\00work\tundar_RX_CRC8_V01.X\main.c: 273:   }
  3193                           
  3194                           
  3195                           ;D:\yiming\00work\tundar_RX_CRC8_V01.X\main.c: 275:   if (csFlag.DRL == 1) {
  3196     0261  0020               	movlb	0	; select bank0
  3197     0262  1E41               	btfss	_csFlag,4
  3198     0263  2A65               	goto	u761
  3199     0264  2A66               	goto	u760
  3200     0265                     u761:
  3201     0265  2A69               	goto	l61
  3202     0266                     u760:
  3203     0266                     l1497:
  3204                           
  3205                           ;D:\yiming\00work\tundar_RX_CRC8_V01.X\main.c: 276:     LATB4 = 1;
  3206     0266  0022               	movlb	2	; select bank2
  3207     0267  160D               	bsf	13,4	;volatile
  3208                           
  3209                           ;D:\yiming\00work\tundar_RX_CRC8_V01.X\main.c: 277:   } else {
  3210     0268  2A6B               	goto	l62
  3211     0269                     l61:
  3212                           
  3213                           ;D:\yiming\00work\tundar_RX_CRC8_V01.X\main.c: 278:     LATB4 = 0;
  3214     0269  0022               	movlb	2	; select bank2
  3215     026A  120D               	bcf	13,4	;volatile
  3216     026B                     l62:	
  3217                           ;D:\yiming\00work\tundar_RX_CRC8_V01.X\main.c: 279:   }
  3218                           
  3219                           
  3220                           ;D:\yiming\00work\tundar_RX_CRC8_V01.X\main.c: 281:   if (csFlag.LoBeam == 1) {
  3221     026B  0020               	movlb	0	; select bank0
  3222     026C  1DC1               	btfss	_csFlag,3
  3223     026D  2A6F               	goto	u771
  3224     026E  2A70               	goto	u770
  3225     026F                     u771:
  3226     026F  2A73               	goto	l63
  3227     0270                     u770:
  3228     0270                     l1499:
  3229                           
  3230                           ;D:\yiming\00work\tundar_RX_CRC8_V01.X\main.c: 282:     LATB3 = 1;
  3231     0270  0022               	movlb	2	; select bank2
  3232     0271  158D               	bsf	13,3	;volatile
  3233                           
  3234                           ;D:\yiming\00work\tundar_RX_CRC8_V01.X\main.c: 283:   } else {
  3235     0272  2A75               	goto	l64
  3236     0273                     l63:
  3237                           
  3238                           ;D:\yiming\00work\tundar_RX_CRC8_V01.X\main.c: 284:     LATB3 = 0;
  3239     0273  0022               	movlb	2	; select bank2
  3240     0274  118D               	bcf	13,3	;volatile
  3241     0275                     l64:	
  3242                           ;D:\yiming\00work\tundar_RX_CRC8_V01.X\main.c: 285:   }
  3243                           
  3244                           
  3245                           ;D:\yiming\00work\tundar_RX_CRC8_V01.X\main.c: 287:   if (csFlag.HiBeam == 1) {
  3246     0275  0020               	movlb	0	; select bank0
  3247     0276  1D41               	btfss	_csFlag,2
  3248     0277  2A79               	goto	u781
  3249     0278  2A7A               	goto	u780
  3250     0279                     u781:
  3251     0279  2A7D               	goto	l65
  3252     027A                     u780:
  3253     027A                     l1501:
  3254                           
  3255                           ;D:\yiming\00work\tundar_RX_CRC8_V01.X\main.c: 288:     LATB2 = 1;
  3256     027A  0022               	movlb	2	; select bank2
  3257     027B  150D               	bsf	13,2	;volatile
  3258                           
  3259                           ;D:\yiming\00work\tundar_RX_CRC8_V01.X\main.c: 289:   } else {
  3260     027C  2A7F               	goto	l66
  3261     027D                     l65:
  3262                           
  3263                           ;D:\yiming\00work\tundar_RX_CRC8_V01.X\main.c: 290:     LATB2 = 0;
  3264     027D  0022               	movlb	2	; select bank2
  3265     027E  110D               	bcf	13,2	;volatile
  3266     027F                     l66:	
  3267                           ;D:\yiming\00work\tundar_RX_CRC8_V01.X\main.c: 291:   }
  3268                           
  3269                           
  3270                           ;D:\yiming\00work\tundar_RX_CRC8_V01.X\main.c: 293:   if (csFlag.turnLight_L == 1) {
  3271     027F  0020               	movlb	0	; select bank0
  3272     0280  1CC1               	btfss	_csFlag,1
  3273     0281  2A83               	goto	u791
  3274     0282  2A84               	goto	u790
  3275     0283                     u791:
  3276     0283  2A87               	goto	l67
  3277     0284                     u790:
  3278     0284                     l1503:
  3279                           
  3280                           ;D:\yiming\00work\tundar_RX_CRC8_V01.X\main.c: 294:     LATB1 = 1;
  3281     0284  0022               	movlb	2	; select bank2
  3282     0285  148D               	bsf	13,1	;volatile
  3283                           
  3284                           ;D:\yiming\00work\tundar_RX_CRC8_V01.X\main.c: 295:   } else {
  3285     0286  2A89               	goto	l68
  3286     0287                     l67:
  3287                           
  3288                           ;D:\yiming\00work\tundar_RX_CRC8_V01.X\main.c: 296:     LATB1 = 0;
  3289     0287  0022               	movlb	2	; select bank2
  3290     0288  108D               	bcf	13,1	;volatile
  3291     0289                     l68:	
  3292                           ;D:\yiming\00work\tundar_RX_CRC8_V01.X\main.c: 297:   }
  3293                           
  3294                           
  3295                           ;D:\yiming\00work\tundar_RX_CRC8_V01.X\main.c: 300:   if (csFlag.turnLight_R == 1) {
  3296     0289  0020               	movlb	0	; select bank0
  3297     028A  1C41               	btfss	_csFlag,0
  3298     028B  2A8D               	goto	u801
  3299     028C  2A8E               	goto	u800
  3300     028D                     u801:
  3301     028D  2A91               	goto	l69
  3302     028E                     u800:
  3303     028E                     l1505:
  3304                           
  3305                           ;D:\yiming\00work\tundar_RX_CRC8_V01.X\main.c: 301:     LATB0 = 1;
  3306     028E  0022               	movlb	2	; select bank2
  3307     028F  140D               	bsf	13,0	;volatile
  3308                           
  3309                           ;D:\yiming\00work\tundar_RX_CRC8_V01.X\main.c: 302:   } else {
  3310     0290  2A93               	goto	l1507
  3311     0291                     l69:
  3312                           
  3313                           ;D:\yiming\00work\tundar_RX_CRC8_V01.X\main.c: 303:     LATB0 = 0;
  3314     0291  0022               	movlb	2	; select bank2
  3315     0292  100D               	bcf	13,0	;volatile
  3316     0293                     l1507:
  3317                           
  3318                           ;D:\yiming\00work\tundar_RX_CRC8_V01.X\main.c: 306:   for (uint8_t i = 0; i < 11; i++) {
  3319     0293  0020               	movlb	0	; select bank0
  3320     0294  01C8               	clrf	LED_output@i
  3321     0295                     l1513:
  3322                           
  3323                           ;D:\yiming\00work\tundar_RX_CRC8_V01.X\main.c: 307:     data_buf[i] = 0;
  3324     0295  0848               	movf	LED_output@i,w
  3325     0296  3E20               	addlw	(low (_data_buf| 0))& (0+255)
  3326     0297  0086               	movwf	6
  3327     0298  0187               	clrf	7
  3328     0299  0181               	clrf	1
  3329     029A                     l1515:
  3330                           
  3331                           ;D:\yiming\00work\tundar_RX_CRC8_V01.X\main.c: 308:   }
  3332     029A  3001               	movlw	1
  3333     029B  00C6               	movwf	??_LED_output
  3334     029C  0846               	movf	??_LED_output,w
  3335     029D  07C8               	addwf	LED_output@i,f
  3336     029E                     l1517:
  3337     029E  300B               	movlw	11
  3338     029F  0248               	subwf	LED_output@i,w
  3339     02A0  1C03               	skipc
  3340     02A1  2AA3               	goto	u811
  3341     02A2  2AA4               	goto	u810
  3342     02A3                     u811:
  3343     02A3  2A95               	goto	l1513
  3344     02A4                     u810:
  3345     02A4                     l58:
  3346     02A4  0008               	return
  3347     02A5                     __end_of_LED_output:
  3348                           
  3349                           	psect	intentry
  3350     0004                     __pintentry:	
  3351 ;; *************** function _INTERRUPT_InterruptManager *****************
  3352 ;; Defined at:
  3353 ;;		line 52 in file "D:\yiming\00work\tundar_RX_CRC8_V01.X\mcc_generated_files\interrupt_manager.c"
  3354 ;; Parameters:    Size  Location     Type
  3355 ;;		None
  3356 ;; Auto vars:     Size  Location     Type
  3357 ;;		None
  3358 ;; Return value:  Size  Location     Type
  3359 ;;                  1    wreg      void 
  3360 ;; Registers used:
  3361 ;;		wreg, status,2, status,0, pclath, cstack
  3362 ;; Tracked objects:
  3363 ;;		On entry : 0/0
  3364 ;;		On exit  : 0/0
  3365 ;;		Unchanged: 0/0
  3366 ;; Data sizes:     COMMON   BANK0   BANK1   BANK2   BANK3   BANK4   BANK5   BANK6
  3367 ;;      Params:         0       0       0       0       0       0       0       0
  3368 ;;      Locals:         0       0       0       0       0       0       0       0
  3369 ;;      Temps:          0       0       0       0       0       0       0       0
  3370 ;;      Totals:         0       0       0       0       0       0       0       0
  3371 ;;Total ram usage:        0 bytes
  3372 ;; Hardware stack levels used: 1
  3373 ;; Hardware stack levels required when called: 3
  3374 ;; This function calls:
  3375 ;;		_ECCP3_CaptureISR
  3376 ;;		_TMR0_ISR
  3377 ;; This function is called by:
  3378 ;;		Interrupt level 1
  3379 ;; This function uses a non-reentrant model
  3380 ;;
  3381                           
  3382     0004                     _INTERRUPT_InterruptManager:
  3383                           
  3384                           ;incstack = 0
  3385     0004  147E               	bsf	int$flags,0	;set compiler interrupt flag (level 1)
  3386                           
  3387                           ; Regs used in _INTERRUPT_InterruptManager: [wreg+status,2+status,0+pclath+cstack]
  3388     0005  3180               	pagesel	$
  3389     0006                     i1l1413:
  3390                           
  3391                           ;D:\yiming\00work\tundar_RX_CRC8_V01.X\mcc_generated_files\interrupt_manager.c: 55:     
      +                          if(INTCONbits.TMR0IE == 1 && INTCONbits.TMR0IF == 1)
  3392     0006  1E8B               	btfss	11,5	;volatile
  3393     0007  2809               	goto	u68_21
  3394     0008  280A               	goto	u68_20
  3395     0009                     u68_21:
  3396     0009  2812               	goto	i1l195
  3397     000A                     u68_20:
  3398     000A                     i1l1415:
  3399     000A  1D0B               	btfss	11,2	;volatile
  3400     000B  280D               	goto	u69_21
  3401     000C  280E               	goto	u69_20
  3402     000D                     u69_21:
  3403     000D  2812               	goto	i1l195
  3404     000E                     u69_20:
  3405     000E                     i1l1417:
  3406                           
  3407                           ;D:\yiming\00work\tundar_RX_CRC8_V01.X\mcc_generated_files\interrupt_manager.c: 56:     
      +                          {;D:\yiming\00work\tundar_RX_CRC8_V01.X\mcc_generated_files\interrupt_manager.c: 57:    
      +                               TMR0_ISR();
  3408     000E  3183  2349  3180   	fcall	_TMR0_ISR
  3409                           
  3410                           ;D:\yiming\00work\tundar_RX_CRC8_V01.X\mcc_generated_files\interrupt_manager.c: 58:     
      +                          }
  3411     0011  2824               	goto	i1l201
  3412     0012                     i1l195:	
  3413                           ;D:\yiming\00work\tundar_RX_CRC8_V01.X\mcc_generated_files\interrupt_manager.c: 59:     
      +                          else if(INTCONbits.PEIE == 1)
  3414                           
  3415     0012  1F0B               	btfss	11,6	;volatile
  3416     0013  2815               	goto	u70_21
  3417     0014  2816               	goto	u70_20
  3418     0015                     u70_21:
  3419     0015  2824               	goto	i1l201
  3420     0016                     u70_20:
  3421     0016                     i1l1419:
  3422                           
  3423                           ;D:\yiming\00work\tundar_RX_CRC8_V01.X\mcc_generated_files\interrupt_manager.c: 60:     
      +                          {;D:\yiming\00work\tundar_RX_CRC8_V01.X\mcc_generated_files\interrupt_manager.c: 61:    
      +                               if(PIE3bits.CCP3IE == 1 && PIR3bits.CCP3IF == 1)
  3424     0016  0021               	movlb	1	; select bank1
  3425     0017  1E13               	btfss	19,4	;volatile
  3426     0018  281A               	goto	u71_21
  3427     0019  281B               	goto	u71_20
  3428     001A                     u71_21:
  3429     001A  2824               	goto	i1l200
  3430     001B                     u71_20:
  3431     001B                     i1l1421:
  3432     001B  0020               	movlb	0	; select bank0
  3433     001C  1E13               	btfss	19,4	;volatile
  3434     001D  281F               	goto	u72_21
  3435     001E  2820               	goto	u72_20
  3436     001F                     u72_21:
  3437     001F  2824               	goto	i1l200
  3438     0020                     u72_20:
  3439     0020                     i1l1423:
  3440                           
  3441                           ;D:\yiming\00work\tundar_RX_CRC8_V01.X\mcc_generated_files\interrupt_manager.c: 62:     
      +                              {;D:\yiming\00work\tundar_RX_CRC8_V01.X\mcc_generated_files\interrupt_manager.c: 63:
      +                                       ECCP3_CaptureISR();
  3442     0020  3183  2397  3180   	fcall	_ECCP3_CaptureISR
  3443                           
  3444                           ;D:\yiming\00work\tundar_RX_CRC8_V01.X\mcc_generated_files\interrupt_manager.c: 64:     
      +                              }
  3445     0023  2824               	goto	i1l201
  3446     0024                     i1l200:	
  3447                           ;D:\yiming\00work\tundar_RX_CRC8_V01.X\mcc_generated_files\interrupt_manager.c: 71:     
      +                          {;D:\yiming\00work\tundar_RX_CRC8_V01.X\mcc_generated_files\interrupt_manager.c: 73:    
      +                           }
  3448                           
  3449     0024                     i1l201:
  3450     0024  107E               	bcf	int$flags,0	;clear compiler interrupt flag (level 1)
  3451     0025  0009               	retfie
  3452     0026                     __end_of_INTERRUPT_InterruptManager:
  3453                           
  3454                           	psect	text13
  3455     0349                     __ptext13:	
  3456 ;; *************** function _TMR0_ISR *****************
  3457 ;; Defined at:
  3458 ;;		line 108 in file "D:\yiming\00work\tundar_RX_CRC8_V01.X\mcc_generated_files\tmr0.c"
  3459 ;; Parameters:    Size  Location     Type
  3460 ;;		None
  3461 ;; Auto vars:     Size  Location     Type
  3462 ;;		None
  3463 ;; Return value:  Size  Location     Type
  3464 ;;                  1    wreg      void 
  3465 ;; Registers used:
  3466 ;;		wreg, status,2, status,0, pclath, cstack
  3467 ;; Tracked objects:
  3468 ;;		On entry : 0/0
  3469 ;;		On exit  : 0/0
  3470 ;;		Unchanged: 0/0
  3471 ;; Data sizes:     COMMON   BANK0   BANK1   BANK2   BANK3   BANK4   BANK5   BANK6
  3472 ;;      Params:         0       0       0       0       0       0       0       0
  3473 ;;      Locals:         0       0       0       0       0       0       0       0
  3474 ;;      Temps:          0       0       0       0       0       0       0       0
  3475 ;;      Totals:         0       0       0       0       0       0       0       0
  3476 ;;Total ram usage:        0 bytes
  3477 ;; Hardware stack levels used: 1
  3478 ;; Hardware stack levels required when called: 2
  3479 ;; This function calls:
  3480 ;;		_TMR0_CallBack
  3481 ;; This function is called by:
  3482 ;;		_INTERRUPT_InterruptManager
  3483 ;; This function uses a non-reentrant model
  3484 ;;
  3485                           
  3486     0349                     _TMR0_ISR:	
  3487                           ;psect for function _TMR0_ISR
  3488                           
  3489     0349                     i1l1393:	
  3490                           ;incstack = 0
  3491                           ; Regs used in _TMR0_ISR: [wreg+status,2+status,0+pclath+cstack]
  3492                           
  3493                           
  3494                           ;D:\yiming\00work\tundar_RX_CRC8_V01.X\mcc_generated_files\tmr0.c: 110:     static volat
      +                          ile uint16_t CountCallBack = 0;;D:\yiming\00work\tundar_RX_CRC8_V01.X\mcc_generated_file
      +                          s\tmr0.c: 113:     INTCONbits.TMR0IF = 0;
  3495     0349  110B               	bcf	11,2	;volatile
  3496     034A                     i1l1395:
  3497                           
  3498                           ;D:\yiming\00work\tundar_RX_CRC8_V01.X\mcc_generated_files\tmr0.c: 115:     TMR0 = timer
      +                          0ReloadVal;
  3499     034A  0020               	movlb	0	; select bank0
  3500     034B  0835               	movf	_timer0ReloadVal,w	;volatile
  3501     034C  0095               	movwf	21	;volatile
  3502                           
  3503                           ;D:\yiming\00work\tundar_RX_CRC8_V01.X\mcc_generated_files\tmr0.c: 118:     if (++CountC
      +                          allBack >= 10)
  3504     034D  3001               	movlw	1
  3505     034E  07AD               	addwf	TMR0_ISR@CountCallBack,f	;volatile
  3506     034F  3000               	movlw	0
  3507     0350  3DAE               	addwfc	TMR0_ISR@CountCallBack+1,f	;volatile
  3508     0351  3000               	movlw	0
  3509     0352  022E               	subwf	TMR0_ISR@CountCallBack+1,w	;volatile
  3510     0353  300A               	movlw	10
  3511     0354  1903               	skipnz
  3512     0355  022D               	subwf	TMR0_ISR@CountCallBack,w	;volatile
  3513     0356  1C03               	skipc
  3514     0357  2B59               	goto	u67_21
  3515     0358  2B5A               	goto	u67_20
  3516     0359                     u67_21:
  3517     0359  2B60               	goto	i1l294
  3518     035A                     u67_20:
  3519     035A                     i1l1397:
  3520                           
  3521                           ;D:\yiming\00work\tundar_RX_CRC8_V01.X\mcc_generated_files\tmr0.c: 119:     {;D:\yiming\
      +                          00work\tundar_RX_CRC8_V01.X\mcc_generated_files\tmr0.c: 121:         TMR0_CallBack();
  3522     035A  3183  23B3  3183   	fcall	_TMR0_CallBack
  3523     035D                     i1l1399:
  3524                           
  3525                           ;D:\yiming\00work\tundar_RX_CRC8_V01.X\mcc_generated_files\tmr0.c: 124:         CountCal
      +                          lBack = 0;
  3526     035D  0020               	movlb	0	; select bank0
  3527     035E  01AD               	clrf	TMR0_ISR@CountCallBack	;volatile
  3528     035F  01AE               	clrf	TMR0_ISR@CountCallBack+1	;volatile
  3529     0360                     i1l294:
  3530     0360  0008               	return
  3531     0361                     __end_of_TMR0_ISR:
  3532                           
  3533                           	psect	text14
  3534     03B3                     __ptext14:	
  3535 ;; *************** function _TMR0_CallBack *****************
  3536 ;; Defined at:
  3537 ;;		line 130 in file "D:\yiming\00work\tundar_RX_CRC8_V01.X\mcc_generated_files\tmr0.c"
  3538 ;; Parameters:    Size  Location     Type
  3539 ;;		None
  3540 ;; Auto vars:     Size  Location     Type
  3541 ;;		None
  3542 ;; Return value:  Size  Location     Type
  3543 ;;                  1    wreg      void 
  3544 ;; Registers used:
  3545 ;;		wreg, status,2, status,0, pclath, cstack
  3546 ;; Tracked objects:
  3547 ;;		On entry : 0/0
  3548 ;;		On exit  : 0/0
  3549 ;;		Unchanged: 0/0
  3550 ;; Data sizes:     COMMON   BANK0   BANK1   BANK2   BANK3   BANK4   BANK5   BANK6
  3551 ;;      Params:         0       0       0       0       0       0       0       0
  3552 ;;      Locals:         0       0       0       0       0       0       0       0
  3553 ;;      Temps:          0       0       0       0       0       0       0       0
  3554 ;;      Totals:         0       0       0       0       0       0       0       0
  3555 ;;Total ram usage:        0 bytes
  3556 ;; Hardware stack levels used: 1
  3557 ;; Hardware stack levels required when called: 1
  3558 ;; This function calls:
  3559 ;;		NULL
  3560 ;;		_TMR0_DefaultInterruptHandler
  3561 ;;		_TMR0_EvenHandler
  3562 ;; This function is called by:
  3563 ;;		_TMR0_ISR
  3564 ;; This function uses a non-reentrant model
  3565 ;;
  3566                           
  3567     03B3                     _TMR0_CallBack:	
  3568                           ;psect for function _TMR0_CallBack
  3569                           
  3570     03B3                     i1l1283:	
  3571                           ;incstack = 0
  3572                           ; Regs used in _TMR0_CallBack: [wreg+status,2+status,0+pclath+cstack]
  3573                           
  3574                           
  3575                           ;D:\yiming\00work\tundar_RX_CRC8_V01.X\mcc_generated_files\tmr0.c: 134:     if(TMR0_Inte
      +                          rruptHandler)
  3576     03B3  0020               	movlb	0	; select bank0
  3577     03B4  082F               	movf	_TMR0_InterruptHandler,w
  3578     03B5  0430               	iorwf	_TMR0_InterruptHandler+1,w
  3579     03B6  1903               	btfsc	3,2
  3580     03B7  2BB9               	goto	u49_21
  3581     03B8  2BBA               	goto	u49_20
  3582     03B9                     u49_21:
  3583     03B9  2BBF               	goto	i1l298
  3584     03BA                     u49_20:
  3585     03BA                     i1l1285:
  3586                           
  3587                           ;D:\yiming\00work\tundar_RX_CRC8_V01.X\mcc_generated_files\tmr0.c: 135:     {;D:\yiming\
      +                          00work\tundar_RX_CRC8_V01.X\mcc_generated_files\tmr0.c: 136:         TMR0_InterruptHandl
      +                          er();
  3588     03BA  0830               	movf	_TMR0_InterruptHandler+1,w
  3589     03BB  008A               	movwf	10
  3590     03BC  082F               	movf	_TMR0_InterruptHandler,w
  3591     03BD  000A               	callw
  3592     03BE  3183               	pagesel	$
  3593     03BF                     i1l298:
  3594     03BF  0008               	return
  3595     03C0                     __end_of_TMR0_CallBack:
  3596                           
  3597                           	psect	text15
  3598     03EC                     __ptext15:	
  3599 ;; *************** function _TMR0_DefaultInterruptHandler *****************
  3600 ;; Defined at:
  3601 ;;		line 144 in file "D:\yiming\00work\tundar_RX_CRC8_V01.X\mcc_generated_files\tmr0.c"
  3602 ;; Parameters:    Size  Location     Type
  3603 ;;		None
  3604 ;; Auto vars:     Size  Location     Type
  3605 ;;		None
  3606 ;; Return value:  Size  Location     Type
  3607 ;;                  1    wreg      void 
  3608 ;; Registers used:
  3609 ;;		None
  3610 ;; Tracked objects:
  3611 ;;		On entry : 0/0
  3612 ;;		On exit  : 0/0
  3613 ;;		Unchanged: 0/0
  3614 ;; Data sizes:     COMMON   BANK0   BANK1   BANK2   BANK3   BANK4   BANK5   BANK6
  3615 ;;      Params:         0       0       0       0       0       0       0       0
  3616 ;;      Locals:         0       0       0       0       0       0       0       0
  3617 ;;      Temps:          0       0       0       0       0       0       0       0
  3618 ;;      Totals:         0       0       0       0       0       0       0       0
  3619 ;;Total ram usage:        0 bytes
  3620 ;; Hardware stack levels used: 1
  3621 ;; This function calls:
  3622 ;;		Nothing
  3623 ;; This function is called by:
  3624 ;;		_TMR0_Initialize
  3625 ;;		_TMR0_CallBack
  3626 ;; This function uses a non-reentrant model
  3627 ;;
  3628                           
  3629     03EC                     _TMR0_DefaultInterruptHandler:	
  3630                           ;psect for function _TMR0_DefaultInterruptHandler
  3631                           
  3632     03EC                     i1l304:	
  3633                           ;incstack = 0
  3634                           ; Regs used in _TMR0_DefaultInterruptHandler: []
  3635                           
  3636     03EC  0008               	return
  3637     03ED                     __end_of_TMR0_DefaultInterruptHandler:
  3638                           
  3639                           	psect	text16
  3640     0388                     __ptext16:	
  3641 ;; *************** function _TMR0_EvenHandler *****************
  3642 ;; Defined at:
  3643 ;;		line 506 in file "D:\yiming\00work\tundar_RX_CRC8_V01.X\main.c"
  3644 ;; Parameters:    Size  Location     Type
  3645 ;;		None
  3646 ;; Auto vars:     Size  Location     Type
  3647 ;;		None
  3648 ;; Return value:  Size  Location     Type
  3649 ;;                  1    wreg      void 
  3650 ;; Registers used:
  3651 ;;		wreg, status,2, status,0
  3652 ;; Tracked objects:
  3653 ;;		On entry : 0/0
  3654 ;;		On exit  : 0/0
  3655 ;;		Unchanged: 0/0
  3656 ;; Data sizes:     COMMON   BANK0   BANK1   BANK2   BANK3   BANK4   BANK5   BANK6
  3657 ;;      Params:         0       0       0       0       0       0       0       0
  3658 ;;      Locals:         0       0       0       0       0       0       0       0
  3659 ;;      Temps:          1       0       0       0       0       0       0       0
  3660 ;;      Totals:         1       0       0       0       0       0       0       0
  3661 ;;Total ram usage:        1 bytes
  3662 ;; Hardware stack levels used: 1
  3663 ;; This function calls:
  3664 ;;		Nothing
  3665 ;; This function is called by:
  3666 ;;		_main
  3667 ;;		_TMR0_CallBack
  3668 ;; This function uses a non-reentrant model
  3669 ;;
  3670                           
  3671     0388                     _TMR0_EvenHandler:	
  3672                           ;psect for function _TMR0_EvenHandler
  3673                           
  3674     0388                     i1l1203:	
  3675                           ;incstack = 0
  3676                           ; Regs used in _TMR0_EvenHandler: [wreg+status,2+status,0]
  3677                           
  3678                           
  3679                           ;D:\yiming\00work\tundar_RX_CRC8_V01.X\main.c: 507:   T10MS_CNT++;
  3680     0388  3001               	movlw	1
  3681     0389  00F6               	movwf	??_TMR0_EvenHandler
  3682     038A  0876               	movf	??_TMR0_EvenHandler,w
  3683     038B  0020               	movlb	0	; select bank0
  3684     038C  07C0               	addwf	_T10MS_CNT,f	;volatile
  3685     038D                     i1l1205:
  3686                           
  3687                           ;D:\yiming\00work\tundar_RX_CRC8_V01.X\main.c: 508:   if (T10MS_CNT >= 200) {
  3688     038D  30C8               	movlw	200
  3689     038E  0240               	subwf	_T10MS_CNT,w	;volatile
  3690     038F  1C03               	skipc
  3691     0390  2B92               	goto	u38_21
  3692     0391  2B93               	goto	u38_20
  3693     0392                     u38_21:
  3694     0392  2B96               	goto	i1l154
  3695     0393                     u38_20:
  3696     0393                     i1l1207:
  3697                           
  3698                           ;D:\yiming\00work\tundar_RX_CRC8_V01.X\main.c: 509:     fException2 = 1;
  3699     0393  01BE               	clrf	_fException2
  3700     0394  0ABE               	incf	_fException2,f
  3701     0395                     i1l1209:
  3702                           
  3703                           ;D:\yiming\00work\tundar_RX_CRC8_V01.X\main.c: 510:     T10MS_CNT = 0;
  3704     0395  01C0               	clrf	_T10MS_CNT	;volatile
  3705     0396                     i1l154:
  3706     0396  0008               	return
  3707     0397                     __end_of_TMR0_EvenHandler:
  3708                           
  3709                           	psect	text17
  3710     0397                     __ptext17:	
  3711 ;; *************** function _ECCP3_CaptureISR *****************
  3712 ;; Defined at:
  3713 ;;		line 80 in file "D:\yiming\00work\tundar_RX_CRC8_V01.X\mcc_generated_files\eccp3.c"
  3714 ;; Parameters:    Size  Location     Type
  3715 ;;		None
  3716 ;; Auto vars:     Size  Location     Type
  3717 ;;  module          2    4[COMMON] struct CCPR3Reg_tag
  3718 ;; Return value:  Size  Location     Type
  3719 ;;                  1    wreg      void 
  3720 ;; Registers used:
  3721 ;;		wreg, status,2, status,0, pclath, cstack
  3722 ;; Tracked objects:
  3723 ;;		On entry : 0/0
  3724 ;;		On exit  : 0/0
  3725 ;;		Unchanged: 0/0
  3726 ;; Data sizes:     COMMON   BANK0   BANK1   BANK2   BANK3   BANK4   BANK5   BANK6
  3727 ;;      Params:         0       0       0       0       0       0       0       0
  3728 ;;      Locals:         2       0       0       0       0       0       0       0
  3729 ;;      Temps:          0       0       0       0       0       0       0       0
  3730 ;;      Totals:         2       0       0       0       0       0       0       0
  3731 ;;Total ram usage:        2 bytes
  3732 ;; Hardware stack levels used: 1
  3733 ;; Hardware stack levels required when called: 1
  3734 ;; This function calls:
  3735 ;;		_ECCP3_CallBack
  3736 ;; This function is called by:
  3737 ;;		_INTERRUPT_InterruptManager
  3738 ;; This function uses a non-reentrant model
  3739 ;;
  3740                           
  3741     0397                     _ECCP3_CaptureISR:	
  3742                           ;psect for function _ECCP3_CaptureISR
  3743                           
  3744     0397                     i1l1387:	
  3745                           ;incstack = 0
  3746                           ; Regs used in _ECCP3_CaptureISR: [wreg+status,2+status,0+pclath+cstack]
  3747                           
  3748                           
  3749                           ;D:\yiming\00work\tundar_RX_CRC8_V01.X\mcc_generated_files\eccp3.c: 82:     CCP3_PERIOD_
      +                          REG_T module;;D:\yiming\00work\tundar_RX_CRC8_V01.X\mcc_generated_files\eccp3.c: 85:    
      +                           PIR3bits.CCP3IF = 0;
  3750     0397  0020               	movlb	0	; select bank0
  3751     0398  1213               	bcf	19,4	;volatile
  3752     0399                     i1l1389:
  3753                           
  3754                           ;D:\yiming\00work\tundar_RX_CRC8_V01.X\mcc_generated_files\eccp3.c: 88:     module.ccpr3
      +                          l = CCPR3L;
  3755     0399  0026               	movlb	6	; select bank6
  3756     039A  0811               	movf	17,w	;volatile
  3757     039B  00FA               	movwf	ECCP3_CaptureISR@module
  3758                           
  3759                           ;D:\yiming\00work\tundar_RX_CRC8_V01.X\mcc_generated_files\eccp3.c: 89:     module.ccpr3
      +                          h = CCPR3H;
  3760     039C  0812               	movf	18,w	;volatile
  3761     039D  00FB               	movwf	ECCP3_CaptureISR@module+1
  3762     039E                     i1l1391:
  3763                           
  3764                           ;D:\yiming\00work\tundar_RX_CRC8_V01.X\mcc_generated_files\eccp3.c: 92:     ECCP3_CallBa
      +                          ck(module.ccpr3_16Bit);
  3765     039E  087B               	movf	ECCP3_CaptureISR@module+1,w
  3766     039F  00F7               	movwf	ECCP3_CallBack@capturedValue+1
  3767     03A0  087A               	movf	ECCP3_CaptureISR@module,w
  3768     03A1  00F6               	movwf	ECCP3_CallBack@capturedValue
  3769     03A2  3181  2146  3183   	fcall	_ECCP3_CallBack
  3770     03A5                     i1l180:
  3771     03A5  0008               	return
  3772     03A6                     __end_of_ECCP3_CaptureISR:
  3773                           
  3774                           	psect	text18
  3775     0146                     __ptext18:	
  3776 ;; *************** function _ECCP3_CallBack *****************
  3777 ;; Defined at:
  3778 ;;		line 419 in file "D:\yiming\00work\tundar_RX_CRC8_V01.X\main.c"
  3779 ;; Parameters:    Size  Location     Type
  3780 ;;  capturedValu    2    0[COMMON] unsigned short 
  3781 ;; Auto vars:     Size  Location     Type
  3782 ;;		None
  3783 ;; Return value:  Size  Location     Type
  3784 ;;                  1    wreg      void 
  3785 ;; Registers used:
  3786 ;;		wreg, status,2, status,0
  3787 ;; Tracked objects:
  3788 ;;		On entry : 0/0
  3789 ;;		On exit  : 0/0
  3790 ;;		Unchanged: 0/0
  3791 ;; Data sizes:     COMMON   BANK0   BANK1   BANK2   BANK3   BANK4   BANK5   BANK6
  3792 ;;      Params:         2       0       0       0       0       0       0       0
  3793 ;;      Locals:         0       0       0       0       0       0       0       0
  3794 ;;      Temps:          2       0       0       0       0       0       0       0
  3795 ;;      Totals:         4       0       0       0       0       0       0       0
  3796 ;;Total ram usage:        4 bytes
  3797 ;; Hardware stack levels used: 1
  3798 ;; This function calls:
  3799 ;;		Nothing
  3800 ;; This function is called by:
  3801 ;;		_ECCP3_CaptureISR
  3802 ;; This function uses a non-reentrant model
  3803 ;;
  3804                           
  3805     0146                     _ECCP3_CallBack:	
  3806                           ;psect for function _ECCP3_CallBack
  3807                           
  3808     0146                     i1l1213:	
  3809                           ;incstack = 0
  3810                           ; Regs used in _ECCP3_CallBack: [wreg+status,2+status,0]
  3811                           
  3812                           
  3813                           ;D:\yiming\00work\tundar_RX_CRC8_V01.X\main.c: 420:   static uint16_t pluse_width_LO = 0
      +                          ;;D:\yiming\00work\tundar_RX_CRC8_V01.X\main.c: 421:   static uint16_t pluse_width_HI = 
      +                          0;;D:\yiming\00work\tundar_RX_CRC8_V01.X\main.c: 422:   static uint8_t HI_us = 0;;D:\yim
      +                          ing\00work\tundar_RX_CRC8_V01.X\main.c: 423:   static uint8_t LO_us = 0;;D:\yiming\00wor
      +                          k\tundar_RX_CRC8_V01.X\main.c: 424:   static uint8_t diff_us = 0;;D:\yiming\00work\tunda
      +                          r_RX_CRC8_V01.X\main.c: 425:   static uint16_t falling_edge_time = 0;;D:\yiming\00work\t
      +                          undar_RX_CRC8_V01.X\main.c: 426:   static uint16_t rising_edge_time = 0;
  3814     0146  3004               	movlw	4
  3815     0147  0026               	movlb	6	; select bank6
  3816     0148  0613               	xorwf	19,w	;volatile
  3817     0149  1D03               	btfss	3,2
  3818     014A  294C               	goto	u39_21
  3819     014B  294D               	goto	u39_20
  3820     014C                     u39_21:
  3821     014C  29C2               	goto	i1l1253
  3822     014D                     u39_20:
  3823     014D                     i1l1215:
  3824                           
  3825                           ;D:\yiming\00work\tundar_RX_CRC8_V01.X\main.c: 434:     falling_edge_time = capturedValu
      +                          e;
  3826     014D  0877               	movf	ECCP3_CallBack@capturedValue+1,w
  3827     014E  00F3               	movwf	ECCP3_CallBack@falling_edge_time+1
  3828     014F  0876               	movf	ECCP3_CallBack@capturedValue,w
  3829     0150  00F2               	movwf	ECCP3_CallBack@falling_edge_time
  3830                           
  3831                           ;D:\yiming\00work\tundar_RX_CRC8_V01.X\main.c: 435:     CCP3CON = 0x05;
  3832     0151  3005               	movlw	5
  3833     0152  0093               	movwf	19	;volatile
  3834     0153                     i1l1217:
  3835                           
  3836                           ;D:\yiming\00work\tundar_RX_CRC8_V01.X\main.c: 436:     if (rise_edge_flag == 1) {
  3837     0153  0020               	movlb	0	; select bank0
  3838     0154  0339               	decf	ECCP3_CallBack@rise_edge_flag,w
  3839     0155  1D03               	btfss	3,2
  3840     0156  2958               	goto	u40_21
  3841     0157  2959               	goto	u40_20
  3842     0158                     u40_21:
  3843     0158  29D7               	goto	i1l150
  3844     0159                     u40_20:
  3845     0159                     i1l1219:
  3846                           
  3847                           ;D:\yiming\00work\tundar_RX_CRC8_V01.X\main.c: 437:       rise_edge_flag = 0;
  3848     0159  01B9               	clrf	ECCP3_CallBack@rise_edge_flag
  3849     015A                     i1l1223:
  3850                           
  3851                           ;D:\yiming\00work\tundar_RX_CRC8_V01.X\main.c: 440:         pluse_width_HI = falling_edg
      +                          e_time - rising_edge_time;
  3852     015A  0870               	movf	ECCP3_CallBack@rising_edge_time,w
  3853     015B  0272               	subwf	ECCP3_CallBack@falling_edge_time,w
  3854     015C  00B1               	movwf	ECCP3_CallBack@pluse_width_HI
  3855     015D  0871               	movf	ECCP3_CallBack@rising_edge_time+1,w
  3856     015E  3B73               	subwfb	ECCP3_CallBack@falling_edge_time+1,w
  3857     015F  00B2               	movwf	ECCP3_CallBack@pluse_width_HI+1
  3858     0160                     i1l137:	
  3859                           ;D:\yiming\00work\tundar_RX_CRC8_V01.X\main.c: 443:       }
  3860                           
  3861                           
  3862                           ;D:\yiming\00work\tundar_RX_CRC8_V01.X\main.c: 445:       LO_us = (pluse_width_LO >> 3) 
      +                          & 0xff;
  3863     0160  0834               	movf	ECCP3_CallBack@pluse_width_LO+1,w
  3864     0161  00F9               	movwf	??_ECCP3_CallBack+1
  3865     0162  0833               	movf	ECCP3_CallBack@pluse_width_LO,w
  3866     0163  00F8               	movwf	??_ECCP3_CallBack
  3867     0164  36F9               	lsrf	??_ECCP3_CallBack+1,f
  3868     0165  0CF8               	rrf	??_ECCP3_CallBack,f
  3869     0166  36F9               	lsrf	??_ECCP3_CallBack+1,f
  3870     0167  0CF8               	rrf	??_ECCP3_CallBack,f
  3871     0168  36F9               	lsrf	??_ECCP3_CallBack+1,f
  3872     0169  0CF8               	rrf	??_ECCP3_CallBack,f
  3873     016A  0878               	movf	??_ECCP3_CallBack,w
  3874     016B  00BB               	movwf	ECCP3_CallBack@LO_us
  3875                           
  3876                           ;D:\yiming\00work\tundar_RX_CRC8_V01.X\main.c: 446:       HI_us = (pluse_width_HI >> 3) 
      +                          & 0xff;
  3877     016C  0832               	movf	ECCP3_CallBack@pluse_width_HI+1,w
  3878     016D  00F9               	movwf	??_ECCP3_CallBack+1
  3879     016E  0831               	movf	ECCP3_CallBack@pluse_width_HI,w
  3880     016F  00F8               	movwf	??_ECCP3_CallBack
  3881     0170  36F9               	lsrf	??_ECCP3_CallBack+1,f
  3882     0171  0CF8               	rrf	??_ECCP3_CallBack,f
  3883     0172  36F9               	lsrf	??_ECCP3_CallBack+1,f
  3884     0173  0CF8               	rrf	??_ECCP3_CallBack,f
  3885     0174  36F9               	lsrf	??_ECCP3_CallBack+1,f
  3886     0175  0CF8               	rrf	??_ECCP3_CallBack,f
  3887     0176  0878               	movf	??_ECCP3_CallBack,w
  3888     0177  00BC               	movwf	ECCP3_CallBack@HI_us
  3889     0178                     i1l1227:
  3890                           
  3891                           ;D:\yiming\00work\tundar_RX_CRC8_V01.X\main.c: 449:       if (HI_us > (25)) {
  3892     0178  301A               	movlw	26
  3893     0179  023C               	subwf	ECCP3_CallBack@HI_us,w
  3894     017A  1C03               	skipc
  3895     017B  297D               	goto	u41_21
  3896     017C  297E               	goto	u41_20
  3897     017D                     u41_21:
  3898     017D  2984               	goto	i1l138
  3899     017E                     u41_20:
  3900     017E                     i1l1229:
  3901                           
  3902                           ;D:\yiming\00work\tundar_RX_CRC8_V01.X\main.c: 450:         LATBbits.LATB7 = 1;
  3903     017E  0022               	movlb	2	; select bank2
  3904     017F  178D               	bsf	13,7	;volatile
  3905                           
  3906                           ;D:\yiming\00work\tundar_RX_CRC8_V01.X\main.c: 451:         data_bit=1;
  3907     0180  0020               	movlb	0	; select bank0
  3908     0181  01B6               	clrf	ECCP3_CallBack@data_bit
  3909     0182  0AB6               	incf	ECCP3_CallBack@data_bit,f
  3910                           
  3911                           ;D:\yiming\00work\tundar_RX_CRC8_V01.X\main.c: 452:       } else {
  3912     0183  2988               	goto	i1l1233
  3913     0184                     i1l138:
  3914                           
  3915                           ;D:\yiming\00work\tundar_RX_CRC8_V01.X\main.c: 453:         LATBbits.LATB7 = 0;
  3916     0184  0022               	movlb	2	; select bank2
  3917     0185  138D               	bcf	13,7	;volatile
  3918     0186                     i1l1231:
  3919                           
  3920                           ;D:\yiming\00work\tundar_RX_CRC8_V01.X\main.c: 454:         data_bit=0;
  3921     0186  0020               	movlb	0	; select bank0
  3922     0187  01B6               	clrf	ECCP3_CallBack@data_bit
  3923     0188                     i1l1233:
  3924                           
  3925                           ;D:\yiming\00work\tundar_RX_CRC8_V01.X\main.c: 462:       if (fHead == 0) {
  3926     0188  0838               	movf	ECCP3_CallBack@fHead,w
  3927     0189  1D03               	btfss	3,2
  3928     018A  298C               	goto	u42_21
  3929     018B  298D               	goto	u42_20
  3930     018C                     u42_21:
  3931     018C  2996               	goto	i1l1241
  3932     018D                     u42_20:
  3933     018D                     i1l1235:
  3934                           
  3935                           ;D:\yiming\00work\tundar_RX_CRC8_V01.X\main.c: 465:         if (data_bit==0) {
  3936     018D  0836               	movf	ECCP3_CallBack@data_bit,w
  3937     018E  1D03               	btfss	3,2
  3938     018F  2991               	goto	u43_21
  3939     0190  2992               	goto	u43_20
  3940     0191                     u43_21:
  3941     0191  29C1               	goto	i1l135
  3942     0192                     u43_20:
  3943     0192                     i1l1237:
  3944                           
  3945                           ;D:\yiming\00work\tundar_RX_CRC8_V01.X\main.c: 468:           fHead = 1;
  3946     0192  01B8               	clrf	ECCP3_CallBack@fHead
  3947     0193  0AB8               	incf	ECCP3_CallBack@fHead,f
  3948     0194                     i1l1239:
  3949                           
  3950                           ;D:\yiming\00work\tundar_RX_CRC8_V01.X\main.c: 469:           data_cnt = 0;
  3951     0194  01B7               	clrf	ECCP3_CallBack@data_cnt
  3952     0195  29D7               	goto	i1l150
  3953     0196                     i1l1241:
  3954                           
  3955                           ;D:\yiming\00work\tundar_RX_CRC8_V01.X\main.c: 473:         if (data_bit==0) {
  3956     0196  0836               	movf	ECCP3_CallBack@data_bit,w
  3957     0197  1D03               	btfss	3,2
  3958     0198  299A               	goto	u44_21
  3959     0199  299B               	goto	u44_20
  3960     019A                     u44_21:
  3961     019A  29A8               	goto	i1l1245
  3962     019B                     u44_20:
  3963     019B                     i1l1243:
  3964                           
  3965                           ;D:\yiming\00work\tundar_RX_CRC8_V01.X\main.c: 477:           rx_data &= ~(1 << data_cnt
      +                          );
  3966     019B  3001               	movlw	1
  3967     019C  00F8               	movwf	??_ECCP3_CallBack
  3968     019D  0A37               	incf	ECCP3_CallBack@data_cnt,w
  3969     019E  29A0               	goto	u45_24
  3970     019F                     u45_25:
  3971     019F  35F8               	lslf	??_ECCP3_CallBack,f
  3972     01A0                     u45_24:
  3973     01A0  0B89               	decfsz	9,f
  3974     01A1  299F               	goto	u45_25
  3975     01A2  0878               	movf	??_ECCP3_CallBack,w
  3976     01A3  3AFF               	xorlw	255
  3977     01A4  00F9               	movwf	??_ECCP3_CallBack+1
  3978     01A5  0879               	movf	??_ECCP3_CallBack+1,w
  3979     01A6  05F5               	andwf	_rx_data,f
  3980                           
  3981                           ;D:\yiming\00work\tundar_RX_CRC8_V01.X\main.c: 478:         } else {
  3982     01A7  29B3               	goto	i1l144
  3983     01A8                     i1l1245:
  3984                           
  3985                           ;D:\yiming\00work\tundar_RX_CRC8_V01.X\main.c: 481:           rx_data |= (1 << data_cnt)
      +                          ;
  3986     01A8  3001               	movlw	1
  3987     01A9  00F8               	movwf	??_ECCP3_CallBack
  3988     01AA  0A37               	incf	ECCP3_CallBack@data_cnt,w
  3989     01AB  29AD               	goto	u46_24
  3990     01AC                     u46_25:
  3991     01AC  35F8               	lslf	??_ECCP3_CallBack,f
  3992     01AD                     u46_24:
  3993     01AD  0B89               	decfsz	9,f
  3994     01AE  29AC               	goto	u46_25
  3995     01AF  0878               	movf	??_ECCP3_CallBack,w
  3996     01B0  00F9               	movwf	??_ECCP3_CallBack+1
  3997     01B1  0879               	movf	??_ECCP3_CallBack+1,w
  3998     01B2  04F5               	iorwf	_rx_data,f
  3999     01B3                     i1l144:	
  4000                           ;D:\yiming\00work\tundar_RX_CRC8_V01.X\main.c: 482:         }
  4001                           
  4002                           
  4003                           ;D:\yiming\00work\tundar_RX_CRC8_V01.X\main.c: 484:         data_cnt++;
  4004     01B3  3001               	movlw	1
  4005     01B4  00F8               	movwf	??_ECCP3_CallBack
  4006     01B5  0878               	movf	??_ECCP3_CallBack,w
  4007     01B6  07B7               	addwf	ECCP3_CallBack@data_cnt,f
  4008     01B7                     i1l1247:
  4009                           
  4010                           ;D:\yiming\00work\tundar_RX_CRC8_V01.X\main.c: 485:         if (data_cnt > 7) {
  4011     01B7  3008               	movlw	8
  4012     01B8  0237               	subwf	ECCP3_CallBack@data_cnt,w
  4013     01B9  1C03               	skipc
  4014     01BA  29BC               	goto	u47_21
  4015     01BB  29BD               	goto	u47_20
  4016     01BC                     u47_21:
  4017     01BC  29C1               	goto	i1l135
  4018     01BD                     u47_20:
  4019     01BD                     i1l1249:
  4020                           
  4021                           ;D:\yiming\00work\tundar_RX_CRC8_V01.X\main.c: 486:           fHead = 0;
  4022     01BD  01B8               	clrf	ECCP3_CallBack@fHead
  4023     01BE                     i1l1251:
  4024                           
  4025                           ;D:\yiming\00work\tundar_RX_CRC8_V01.X\main.c: 487:           data_1byte_OK = 1;
  4026     01BE  3001               	movlw	1
  4027     01BF  00C5               	movwf	_data_1byte_OK	;volatile
  4028     01C0  29D7               	goto	i1l150
  4029     01C1                     i1l135:	
  4030                           ;D:\yiming\00work\tundar_RX_CRC8_V01.X\main.c: 490:     }
  4031                           
  4032                           
  4033                           ;D:\yiming\00work\tundar_RX_CRC8_V01.X\main.c: 492:   }
  4034     01C1  29D7               	goto	i1l150
  4035     01C2                     i1l1253:
  4036     01C2  3005               	movlw	5
  4037     01C3  0613               	xorwf	19,w	;volatile
  4038     01C4  1D03               	btfss	3,2
  4039     01C5  29C7               	goto	u48_21
  4040     01C6  29C8               	goto	u48_20
  4041     01C7                     u48_21:
  4042     01C7  29D7               	goto	i1l150
  4043     01C8                     u48_20:
  4044     01C8                     i1l1255:
  4045                           
  4046                           ;D:\yiming\00work\tundar_RX_CRC8_V01.X\main.c: 494:     rising_edge_time = capturedValue
      +                          ;
  4047     01C8  0877               	movf	ECCP3_CallBack@capturedValue+1,w
  4048     01C9  00F1               	movwf	ECCP3_CallBack@rising_edge_time+1
  4049     01CA  0876               	movf	ECCP3_CallBack@capturedValue,w
  4050     01CB  00F0               	movwf	ECCP3_CallBack@rising_edge_time
  4051                           
  4052                           ;D:\yiming\00work\tundar_RX_CRC8_V01.X\main.c: 497:     if (rising_edge_time >= falling_
      +                          edge_time) {
  4053     01CC  3004               	movlw	4
  4054     01CD  0093               	movwf	19	;volatile
  4055     01CE                     i1l1257:
  4056                           
  4057                           ;D:\yiming\00work\tundar_RX_CRC8_V01.X\main.c: 498:       pluse_width_LO = rising_edge_t
      +                          ime - falling_edge_time;
  4058     01CE  0872               	movf	ECCP3_CallBack@falling_edge_time,w
  4059     01CF  0270               	subwf	ECCP3_CallBack@rising_edge_time,w
  4060     01D0  0020               	movlb	0	; select bank0
  4061     01D1  00B3               	movwf	ECCP3_CallBack@pluse_width_LO
  4062     01D2  0873               	movf	ECCP3_CallBack@falling_edge_time+1,w
  4063     01D3  3B71               	subwfb	ECCP3_CallBack@rising_edge_time+1,w
  4064     01D4  00B4               	movwf	ECCP3_CallBack@pluse_width_LO+1
  4065     01D5                     i1l1261:	
  4066                           ;D:\yiming\00work\tundar_RX_CRC8_V01.X\main.c: 499:     } else {
  4067                           
  4068                           
  4069                           ;D:\yiming\00work\tundar_RX_CRC8_V01.X\main.c: 502:     rise_edge_flag = 1;
  4070     01D5  01B9               	clrf	ECCP3_CallBack@rise_edge_flag
  4071     01D6  0AB9               	incf	ECCP3_CallBack@rise_edge_flag,f
  4072     01D7                     i1l150:
  4073     01D7  0008               	return
  4074     01D8                     __end_of_ECCP3_CallBack:
  4075     007E                     btemp	set	126	;btemp
  4076     007E                     int$flags	set	126
  4077     007E                     wtemp0	set	126
  4078                           
  4079                           	psect	idloc
  4080                           
  4081                           ;Config register IDLOC0 @ 0x8000
  4082                           ;	unspecified, using default values
  4083     8000                     	org	32768
  4084     8000  3FFF               	dw	16383
  4085                           
  4086                           ;Config register IDLOC1 @ 0x8001
  4087                           ;	unspecified, using default values
  4088     8001                     	org	32769
  4089     8001  3FFF               	dw	16383
  4090                           
  4091                           ;Config register IDLOC2 @ 0x8002
  4092                           ;	unspecified, using default values
  4093     8002                     	org	32770
  4094     8002  3FFF               	dw	16383
  4095                           
  4096                           ;Config register IDLOC3 @ 0x8003
  4097                           ;	unspecified, using default values
  4098     8003                     	org	32771
  4099     8003  3FFF               	dw	16383
  4100                           
  4101                           	psect	config
  4102                           
  4103                           ;Config register CONFIG1 @ 0x8007
  4104                           ;	Oscillator Selection
  4105                           ;	FOSC = INTOSC, INTOSC oscillator: I/O function on CLKIN pin
  4106                           ;	Watchdog Timer Enable
  4107                           ;	WDTE = OFF, WDT disabled
  4108                           ;	Power-up Timer Enable
  4109                           ;	PWRTE = ON, PWRT enabled
  4110                           ;	MCLR Pin Function Select
  4111                           ;	MCLRE = ON, MCLR/VPP pin function is MCLR
  4112                           ;	Flash Program Memory Code Protection
  4113                           ;	CP = OFF, Program memory code protection is disabled
  4114                           ;	Data Memory Code Protection
  4115                           ;	CPD = OFF, Data memory code protection is disabled
  4116                           ;	Brown-out Reset Enable
  4117                           ;	BOREN = ON, Brown-out Reset enabled
  4118                           ;	Clock Out Enable
  4119                           ;	CLKOUTEN = OFF, CLKOUT function is disabled. I/O or oscillator function on the CLKOUT 
      +                          pin
  4120                           ;	Internal/External Switchover
  4121                           ;	IESO = ON, Internal/External Switchover mode is enabled
  4122                           ;	Fail-Safe Clock Monitor Enable
  4123                           ;	FCMEN = ON, Fail-Safe Clock Monitor is enabled
  4124     8007                     	org	32775
  4125     8007  3FC4               	dw	16324
  4126                           
  4127                           ;Config register CONFIG2 @ 0x8008
  4128                           ;	Flash Memory Self-Write Protection
  4129                           ;	WRT = OFF, Write protection off
  4130                           ;	Voltage Regulator Capacitor Enable
  4131                           ;	VCAPEN = OFF, All VCAP pin functionality is disabled
  4132                           ;	PLL Enable
  4133                           ;	PLLEN = ON, 4x PLL enabled
  4134                           ;	Stack Overflow/Underflow Reset Enable
  4135                           ;	STVREN = ON, Stack Overflow or Underflow will cause a Reset
  4136                           ;	Brown-out Reset Voltage Selection
  4137                           ;	BORV = LO, Brown-out Reset Voltage (Vbor), low trip point selected.
  4138                           ;	Low-Voltage Programming Enable
  4139                           ;	LVP = OFF, High-voltage on MCLR/VPP must be used for programming
  4140     8008                     	org	32776
  4141     8008  1FFF               	dw	8191

Data Sizes:
    Strings     0
    Constant    256
    Data        64
    BSS         44
    Persistent  32
    Stack       0

Auto Spaces:
    Space          Size  Autos    Used
    COMMON           14      6      12
    BANK0            80      3      41
    BANK1            80      0      64
    BANK2            80      0       0
    BANK3            80      0       0
    BANK4            80      0       0
    BANK5            80      0       0
    BANK6            16      0       0

Pointer List with Targets:

    TMR0_InterruptHandler	PTR FTN()void  size(2) Largest target is 1
		 -> TMR0_DefaultInterruptHandler(), TMR0_EvenHandler(), NULL(), 

    TMR0_SetInterruptHandler@InterruptHandler	PTR FTN()void  size(2) Largest target is 1
		 -> TMR0_DefaultInterruptHandler(), TMR0_EvenHandler(), 


Critical Paths under _main in COMMON

    None.

Critical Paths under _INTERRUPT_InterruptManager in COMMON

    _INTERRUPT_InterruptManager->_ECCP3_CaptureISR
    _TMR0_CallBack->_TMR0_EvenHandler
    _ECCP3_CaptureISR->_ECCP3_CallBack

Critical Paths under _main in BANK0

    _main->_LED_output
    _TMR0_Initialize->_TMR0_SetInterruptHandler

Critical Paths under _INTERRUPT_InterruptManager in BANK0

    None.

Critical Paths under _main in BANK1

    None.

Critical Paths under _INTERRUPT_InterruptManager in BANK1

    None.

Critical Paths under _main in BANK2

    None.

Critical Paths under _INTERRUPT_InterruptManager in BANK2

    None.

Critical Paths under _main in BANK3

    None.

Critical Paths under _INTERRUPT_InterruptManager in BANK3

    None.

Critical Paths under _main in BANK4

    None.

Critical Paths under _INTERRUPT_InterruptManager in BANK4

    None.

Critical Paths under _main in BANK5

    None.

Critical Paths under _INTERRUPT_InterruptManager in BANK5

    None.

Critical Paths under _main in BANK6

    None.

Critical Paths under _INTERRUPT_InterruptManager in BANK6

    None.

Call Graph Tables:

 ---------------------------------------------------------------------------------
 (Depth) Function   	        Calls       Base Space   Used Autos Params    Refs
 ---------------------------------------------------------------------------------
 (0) _main                                                 0     0      0     555
                         _LED_output
                  _SYSTEM_Initialize
           _TMR0_SetInterruptHandler
                        _check_input
                       _getFrameData
 ---------------------------------------------------------------------------------
 (1) _getFrameData                                         0     0      0       0
 ---------------------------------------------------------------------------------
 (1) _check_input                                          0     0      0       0
 ---------------------------------------------------------------------------------
 (1) _SYSTEM_Initialize                                    0     0      0     211
                   _ECCP3_Initialize
              _OSCILLATOR_Initialize
             _PIN_MANAGER_Initialize
                    _TMR0_Initialize
                    _TMR1_Initialize
                     _WDT_Initialize
 ---------------------------------------------------------------------------------
 (2) _WDT_Initialize                                       0     0      0       0
 ---------------------------------------------------------------------------------
 (2) _TMR1_Initialize                                      0     0      0       0
 ---------------------------------------------------------------------------------
 (2) _TMR0_Initialize                                      0     0      0     211
           _TMR0_SetInterruptHandler
 ---------------------------------------------------------------------------------
 (1) _TMR0_SetInterruptHandler                             2     0      2     211
                                              0 BANK0      2     0      2
 ---------------------------------------------------------------------------------
 (2) _PIN_MANAGER_Initialize                               0     0      0       0
 ---------------------------------------------------------------------------------
 (2) _OSCILLATOR_Initialize                                0     0      0       0
 ---------------------------------------------------------------------------------
 (2) _ECCP3_Initialize                                     0     0      0       0
 ---------------------------------------------------------------------------------
 (1) _LED_output                                           3     3      0     133
                                              0 BANK0      3     3      0
 ---------------------------------------------------------------------------------
 Estimated maximum stack depth 2
 ---------------------------------------------------------------------------------
 (Depth) Function   	        Calls       Base Space   Used Autos Params    Refs
 ---------------------------------------------------------------------------------
 (4) _INTERRUPT_InterruptManager                           0     0      0     167
                   _ECCP3_CaptureISR
                           _TMR0_ISR
 ---------------------------------------------------------------------------------
 (5) _TMR0_ISR                                             0     0      0       0
                      _TMR0_CallBack
 ---------------------------------------------------------------------------------
 (6) _TMR0_CallBack                                        0     0      0       0
                                NULL *
       _TMR0_DefaultInterruptHandler *
                   _TMR0_EvenHandler *
 ---------------------------------------------------------------------------------
 (7) _TMR0_EvenHandler                                     1     1      0       0
                                              0 COMMON     1     1      0
 ---------------------------------------------------------------------------------
 (7) _TMR0_DefaultInterruptHandler                         0     0      0       0
 ---------------------------------------------------------------------------------
 (7) NULL(Fake)                                            0     0      0       0
 ---------------------------------------------------------------------------------
 (5) _ECCP3_CaptureISR                                     2     2      0     167
                                              4 COMMON     2     2      0
                     _ECCP3_CallBack
 ---------------------------------------------------------------------------------
 (6) _ECCP3_CallBack                                       4     2      2     120
                                              0 COMMON     4     2      2
 ---------------------------------------------------------------------------------
 Estimated maximum stack depth 7
 ---------------------------------------------------------------------------------

 Call Graph Graphs:

 _main (ROOT)
   _LED_output
   _SYSTEM_Initialize
     _ECCP3_Initialize
     _OSCILLATOR_Initialize
     _PIN_MANAGER_Initialize
     _TMR0_Initialize
       _TMR0_SetInterruptHandler
     _TMR1_Initialize
     _WDT_Initialize
   _TMR0_SetInterruptHandler
   _check_input
   _getFrameData

 _INTERRUPT_InterruptManager (ROOT)
   _ECCP3_CaptureISR
     _ECCP3_CallBack
   _TMR0_ISR
     _TMR0_CallBack
       NULL(Fake) *
       _TMR0_DefaultInterruptHandler *
       _TMR0_EvenHandler *

 Address spaces:
Name               Size   Autos  Total    Cost      Usage
BIGRAM             1F0      0       0       0        0.0%
EEDATA             100      0       0       0        0.0%
NULL                 0      0       0       0        0.0%
CODE                 0      0       0       0        0.0%
BITCOMMON            E      0       0       1        0.0%
BITSFR0              0      0       0       1        0.0%
SFR0                 0      0       0       1        0.0%
COMMON               E      6       C       2       85.7%
BITSFR1              0      0       0       2        0.0%
SFR1                 0      0       0       2        0.0%
BITSFR2              0      0       0       3        0.0%
SFR2                 0      0       0       3        0.0%
STACK                0      0       0       3        0.0%
BITSFR3              0      0       0       4        0.0%
SFR3                 0      0       0       4        0.0%
ABS                  0      0      75       4        0.0%
BITBANK0            50      0       0       5        0.0%
BITSFR4              0      0       0       5        0.0%
SFR4                 0      0       0       5        0.0%
BANK0               50      3      29       6       51.2%
BITSFR5              0      0       0       6        0.0%
SFR5                 0      0       0       6        0.0%
BITBANK1            50      0       0       7        0.0%
BITSFR6              0      0       0       7        0.0%
SFR6                 0      0       0       7        0.0%
BANK1               50      0      40       8       80.0%
BITSFR7              0      0       0       8        0.0%
SFR7                 0      0       0       8        0.0%
BITBANK2            50      0       0       9        0.0%
BITSFR8              0      0       0       9        0.0%
SFR8                 0      0       0       9        0.0%
BANK2               50      0       0      10        0.0%
BITSFR9              0      0       0      10        0.0%
SFR9                 0      0       0      10        0.0%
BITBANK3            50      0       0      11        0.0%
BITSFR10             0      0       0      11        0.0%
SFR10                0      0       0      11        0.0%
BANK3               50      0       0      12        0.0%
BITSFR11             0      0       0      12        0.0%
SFR11                0      0       0      12        0.0%
BITBANK4            50      0       0      13        0.0%
BITSFR12             0      0       0      13        0.0%
SFR12                0      0       0      13        0.0%
BANK4               50      0       0      14        0.0%
BITSFR13             0      0       0      14        0.0%
SFR13                0      0       0      14        0.0%
BITBANK5            50      0       0      15        0.0%
BITSFR14             0      0       0      15        0.0%
SFR14                0      0       0      15        0.0%
BANK5               50      0       0      16        0.0%
BITSFR15             0      0       0      16        0.0%
SFR15                0      0       0      16        0.0%
BITBANK6            10      0       0      17        0.0%
BITSFR16             0      0       0      17        0.0%
SFR16                0      0       0      17        0.0%
BANK6               10      0       0      18        0.0%
BITSFR17             0      0       0      18        0.0%
SFR17                0      0       0      18        0.0%
BITSFR18             0      0       0      19        0.0%
SFR18                0      0       0      19        0.0%
DATA                 0      0      75      19        0.0%
BITSFR19             0      0       0      20        0.0%
SFR19                0      0       0      20        0.0%
BITSFR20             0      0       0      21        0.0%
SFR20                0      0       0      21        0.0%
BITSFR21             0      0       0      22        0.0%
SFR21                0      0       0      22        0.0%
BITSFR22             0      0       0      23        0.0%
SFR22                0      0       0      23        0.0%
BITSFR23             0      0       0      24        0.0%
SFR23                0      0       0      24        0.0%
BITSFR24             0      0       0      25        0.0%
SFR24                0      0       0      25        0.0%
BITSFR25             0      0       0      26        0.0%
SFR25                0      0       0      26        0.0%
BITSFR26             0      0       0      27        0.0%
SFR26                0      0       0      27        0.0%
BITSFR27             0      0       0      28        0.0%
SFR27                0      0       0      28        0.0%
BITSFR28             0      0       0      29        0.0%
SFR28                0      0       0      29        0.0%
BITSFR29             0      0       0      30        0.0%
SFR29                0      0       0      30        0.0%
BITSFR30             0      0       0      31        0.0%
SFR30                0      0       0      31        0.0%
BITSFR31             0      0       0      32        0.0%
SFR31                0      0       0      32        0.0%


Microchip Technology PIC Macro Assembler V2.46 build 20240104201356 
Symbol Table                                                                                   Tue May 12 13:43:44 2026

                                      _D2 0074                                        _D3 0042  
                                      l60 0261                                        l61 0269  
                                      l62 026B                                        l63 0273  
                                      l64 0275                                        l80 0300  
                                      l65 027D                                        l81 0306  
                                      l66 027F                                        l58 02A4  
                                      l82 0307                                        l67 0287  
                                      l59 025F                                        l83 030D  
                                      l75 02F1                                        l68 0289  
                                      l84 030E                                        l76 02F2  
                                      l69 0291                                        l85 0314  
                                      l77 02F8                                        _CS 00A0  
                                      l78 02F9                                        l87 0315  
                                      l79 02FF                           _timer0ReloadVal 0035  
                                     l301 03E7                                       l109 0248  
                                     l232 03CB                                       l226 0387  
                                     l235 03EB                                       l229 03C6  
                                     l319 03B2                                       l177 03D5  
                                     l266 032F                                       l288 0374  
                                     u800 028E                                       u801 028D  
                                     u810 02A4                                       u730 03CB  
                                     u811 02A3                                       u731 03CA  
                                     u740 0256                                       u820 02EF  
                                     u900 01F3                                       u741 0255  
                                     u821 02EE                                       u901 01F2  
                                     u750 025C                                       u830 02F6  
                                     u751 025B                                       u831 02F5  
                                     u760 0266                                       u840 02FD  
                                     u761 0265                                       u841 02FC  
                                     u770 0270                                       u850 0304  
                                     u771 026F                                       u851 0303  
                                     u780 027A                                       u860 030B  
                                     u781 0279                                       u861 030A  
                                     u790 0284                                       u870 0312  
                                     u791 0283                                       u871 0311  
                                     u880 01DE                                       u881 01DD  
                                     u890 01E6                                       u891 01E5  
                         _timer1ReloadVal 002B                                       wreg 0009  
                __end_of_ECCP3_Initialize 03D6                               ?_LED_output 0076  
                                    l1501 027A                                      l1503 0284  
                                    l1431 03D0                                      l1513 0295  
                                    l1505 028E                                      l1433 03D1  
                                    l1441 031B                                      l1425 03E2  
                                    l1521 02EA                                      l1515 029A  
                                    l1507 0293                                      l1435 03D3  
                                    l1427 03CC                                      l1451 032A  
                                    l1443 0321                                      l1531 0304  
                                    l1523 02EB                                      l1517 029E  
                                    l1429 03CF                                      l1461 03C4  
                                    l1453 032B                                      l1445 0322  
                                    l1437 0316                                      l1533 030B  
                                    l1525 02EF                                      l1541 01E0  
                                    l1455 032D                                      l1447 0326  
                                    l1439 0319                                      l1471 03AB  
                                    l1463 03E8                                      l1535 0312  
                                    l1527 02F6                                      l1519 02E5  
                                    l1551 01F3                                      l1543 01E6  
                                    l1457 03C0                                      l1449 0328  
                                    l1481 036C                                      l1473 0361  
                                    l1465 03A6                                      l1529 02FD  
                                    l1561 0207                                      l1545 01E8  
                                    l1537 01D8                                      l1491 0257  
                                    l1459 03C3                                      l1483 036D  
                                    l1475 0366                                      l1467 03A9  
                                    l1571 0220                                      l1563 020C  
                                    l1555 01F8                                      l1547 01EB  
                                    l1539 01DE                                      l1493 0258  
                                    l1485 0249                                      l1477 0369  
                                    l1469 03AA                                      l1573 0222  
                                    l1565 0211                                      l1557 01FD  
                                    l1549 01ED                                      l1581 0225  
                                    l1495 025C                                      l1487 0250  
                                    l1479 036B                                      l1583 0375  
                                    l1567 0216                                      l1559 0202  
                                    l1591 033D                                      l1497 0266  
                                    l1569 021B                                      l1593 0340  
                                    l1585 0330                                      l1499 0270  
                                    l1595 0343                                      l1587 033B  
                                    l1589 033C                                      _LATA 010C  
                                    _LATB 010D                                      _LATC 010E  
                                    _LATE 0110                                      _PLLR 04D6  
                                    _TMR0 0015                                      _WPUB 020D  
                                    _WPUE 0210                       ECCP3_CallBack@HI_us 003C  
                     ECCP3_CallBack@LO_us 003B                                      _main 0330  
                                    fsr0h 0005                                      fsr1h 0007  
                                    indf0 0000                                      fsr0l 0004  
                                    indf1 0001                                      fsr1l 0006  
                                    _step 0043                                      btemp 007E  
                     ECCP3_CallBack@fHead 0038                                      start 0026  
                 __end_of_TMR0_Initialize 0375            ??_TMR0_DefaultInterruptHandler 0076  
           __end_of_OSCILLATOR_Initialize 03CC                                     ?_main 0076  
                                   _T1CON 0018                                     _LATB0 0868  
                                   _LATB1 0869                                     _LATB2 086A  
                                   _LATB3 086B                                     _LATB4 086C  
                                   _LATB5 086D                                     i1l200 0024  
                                   i1l201 0024                                     i1l150 01D7  
                                   i1l135 01C1                                     i1l144 01B3  
                                   i1l304 03EC                                     i1l137 0160  
                                   i1l138 0184                                     i1l154 0396  
                                   i1l180 03A5                                     i1l195 0012  
                                   i1l294 0360                                     i1l298 03BF  
                __end_of_TMR0_EvenHandler 0397                                     u40_20 0159  
                                   u40_21 0158                                     u41_20 017E  
                                   u41_21 017D                                     _TMR1H 0017  
                                   _TMR1L 0016                                     u42_20 018D  
                                   u42_21 018C                                     u43_20 0192  
                                   u43_21 0191                                     u44_20 019B  
                                   u44_21 019A                                     u45_24 01A0  
                                   u45_25 019F                                     u38_20 0393  
                                   u70_20 0016                                     u38_21 0392  
                                   u70_21 0015                                     u46_24 01AD  
                                   u46_25 01AC                                     u47_20 01BD  
                                   u39_20 014D                                     u71_20 001B  
                                   u47_21 01BC                                     u39_21 014C  
                                   u71_21 001A                                     u48_20 01C8  
                                   u72_20 0020                                     u48_21 01C7  
                                   u72_21 001F                                     u49_20 03BA  
                                   u49_21 03B9                                     _TRISA 008C  
                                   _TRISB 008D                                     _TRISC 008E  
                                   _TRISE 0090                                     u67_20 035A  
                                   u67_21 0359                                     u68_20 000A  
                                   u68_21 0009                                     u69_20 000E  
                                   u69_21 000D                 ?_TMR0_SetInterruptHandler 0046  
                        __end_of_TMR0_ISR 0361                            _WDT_Initialize 03E8  
                 __end_of_TMR1_Initialize 03B3                                     pclath 000A  
                                   status 0003                                     wtemp0 007E  
            ECCP3_CallBack@pluse_width_HI 0031              ECCP3_CallBack@pluse_width_LO 0033  
                    __end_of_getFrameData 0249                           __initialization 0028  
                            __end_of_main 0349               ?_INTERRUPT_InterruptManager 0076  
                                  ??_main 0049           ECCP3_CallBack@falling_edge_time 0072  
                  __end_of_WDT_Initialize 03EC                                    _CCPR3H 0312  
                                  _CCPR3L 0311                                    _APFCON 011D  
                                  _ANSELA 018C                                    _ANSELB 018D  
                                  _BORCON 0116                                    _T1GCON 0019  
                                  i1l1203 0388                                    i1l1213 0146  
                                  i1l1205 038D                                    i1l1231 0186  
                                  i1l1223 015A                                    i1l1215 014D  
                                  i1l1207 0393                                    i1l1241 0196  
                                  i1l1233 0188                                    i1l1217 0153  
                                  i1l1209 0395                                    i1l1251 01BE  
                                  i1l1243 019B                                    i1l1235 018D  
                                  i1l1227 0178                                    i1l1219 0159  
                                  i1l1261 01D5                                    i1l1245 01A8  
                                  i1l1237 0192                                    i1l1229 017E  
                                  i1l1253 01C2                                    i1l1421 001B  
                                  i1l1413 0006                                    i1l1255 01C8  
                                  i1l1247 01B7                                    i1l1239 0194  
                                  i1l1423 0020                                    i1l1415 000A  
                                  i1l1257 01CE                                    i1l1249 01BD  
                                  i1l1417 000E                                    i1l1283 03B3  
                                  i1l1419 0016                                    i1l1285 03BA  
                                  i1l1391 039E                                    i1l1393 0349  
                                  i1l1387 0397                                    i1l1395 034A  
                                  i1l1389 0399                                    i1l1397 035A  
                                  i1l1399 035D                                    _OSCCON 0099  
                                  _WDTCON 0097                               LED_output@i 0048  
          ECCP3_CallBack@rising_edge_time 0070                                    _csFlag 0041  
                        ?_TMR0_Initialize 0076                         ?_ECCP3_CaptureISR 0076  
                         ?_WDT_Initialize 0076                        ??_ECCP3_CaptureISR 007A  
                              _fException 003F                     __end_of_TMR0_CallBack 03C0  
TMR0_SetInterruptHandler@InterruptHandler 0046                     ECCP3_CallBack@diff_us 003A  
                        ?_TMR1_Initialize 0076                         _SYSTEM_Initialize 0375  
                 __end_of__initialization 0042                        ?_SYSTEM_Initialize 0076  
                          __pcstackCOMMON 0076                              __pidataBANK1 02A5  
                     ??_SYSTEM_Initialize 0048                                 ?_TMR0_ISR 0076  
                          _OPTION_REGbits 0095                     TMR0_ISR@CountCallBack 002D  
                            ??_LED_output 0046                 __end_of_SYSTEM_Initialize 0388  
                       ?_ECCP3_Initialize 0076                                __pbssBANK0 0020  
                      ??_ECCP3_Initialize 0046                                __pmaintext 0330  
        __end_of_TMR0_SetInterruptHandler 03E8                                ??_TMR0_ISR 0077  
                              __pintentry 0004                                   _CCP3CON 0313  
                      __end_of_LED_output 02A5                              _getFrameData 01D8  
                       ?_TMR0_EvenHandler 0076                                   _OSCTUNE 0098  
                      ??_TMR0_EvenHandler 0076                                 _T10MS_CNT 0040  
                          _ECCP3_CallBack 0146                                   __ptext1 01D8  
                                 __ptext2 02E5                                   __ptext3 0375  
                                 __ptext4 03E8                                   __ptext5 03A6  
                                 __ptext6 0361                                   __ptext7 03E2  
                                 __ptext8 0316                                   __ptext9 03C0  
                   _OSCILLATOR_Initialize 03C0                             ??_check_input 0046  
                  ECCP3_CaptureISR@module 007A                  ??_PIN_MANAGER_Initialize 0046  
                           _data_1byte_OK 0045                                   _rx_data 0075  
                                 clrloop0 03DD                      end_of_initialization 0042  
                                 init_ram 03D6                                   initloop 03D7  
                             _fException2 003E                    __end_of_ECCP3_CallBack 01D8  
                        _crc8_table_fixed 0046                    ECCP3_CallBack@data_bit 0036  
                  ECCP3_CallBack@data_cnt 0037                          ??_WDT_Initialize 0046  
                _TMR0_SetInterruptHandler 03E2                       __end_of_check_input 0316  
                         ?_ECCP3_CallBack 0076                    ?_OSCILLATOR_Initialize 0076  
                     start_initialization 0028                            LED_output@crc8 0047  
                               _fFrame_OK 0044                               __pdataBANK1 00A0  
                               _fLampSide 003D                               __pbssCOMMON 0070  
                             _check_input 02E5                                 ___latbits 0002  
                           __pcstackBANK0 0046                     _TMR0_InterruptHandler 002F  
                  _PIN_MANAGER_Initialize 0316              ??_INTERRUPT_InterruptManager 007C  
                           _TMR0_CallBack 03B3                  __end_of_crc8_table_fixed 0146  
                       ??_TMR0_Initialize 0048                          _ECCP3_CaptureISR 0397  
                                _LATBbits 010D                                 clear_ram0 03DC  
                                _PIE3bits 0093                ??_TMR0_SetInterruptHandler 0048  
                                _PIR1bits 0011                                  _PIR3bits 0013  
                                _TMR0_ISR 0349                         ??_TMR1_Initialize 0046  
                          ?_TMR0_CallBack 0076                          ??_ECCP3_CallBack 0078  
                        _ECCP3_Initialize 03CC                   ??_OSCILLATOR_Initialize 0046  
             ECCP3_CallBack@capturedValue 0076              ECCP3_CallBack@rise_edge_flag 0039  
                                _data_buf 0020                                  __ptext10 03CC  
                                __ptext11 0249                                  __ptext13 0349  
                                __ptext14 03B3                                  __ptext15 03EC  
                                __ptext16 0388                                  __ptext17 0397  
                                __ptext18 0146                          _TMR0_EvenHandler 0388  
    __end_of_TMR0_DefaultInterruptHandler 03ED              _TMR0_DefaultInterruptHandler 03EC  
                                int$flags 007E        __end_of_INTERRUPT_InterruptManager 0026  
              _INTERRUPT_InterruptManager 0004                             ?_getFrameData 0076  
                              _INTCONbits 000B                              ?_check_input 0076  
                         ??_TMR0_CallBack 0077                                _LED_output 0249  
                                intlevel1 0000                   ?_PIN_MANAGER_Initialize 0076  
           ?_TMR0_DefaultInterruptHandler 0076                             __pstringtext1 0046  
                          ??_getFrameData 0046                  __end_of_ECCP3_CaptureISR 03A6  
                              _OPTION_REG 0095                           _TMR0_Initialize 0361  
          __end_of_PIN_MANAGER_Initialize 0330                           _TMR1_Initialize 03A6  
