

Microchip MPLAB XC8 Assembler V2.46 build 20240104201356 
                                                                                               Thu May 14 13:12:06 2026

Microchip MPLAB XC8 C Compiler v2.46 (Free license) build 20240104201356 Og1 
     1                           	processor	16F1936
     2                           	pagewidth 120
     3                           	opt	flic
     4                           	psect	stringtext1,global,class=STRCODE,delta=2,noexec
     5                           	psect	cinit,global,class=CODE,merge=1,delta=2
     6                           	psect	bssCOMMON,global,class=COMMON,space=1,delta=1,noexec
     7                           	psect	bssBANK0,global,class=BANK0,space=1,delta=1,noexec
     8                           	psect	clrtext,global,class=CODE,delta=2
     9                           	psect	cstackCOMMON,global,class=COMMON,space=1,delta=1,noexec
    10                           	psect	cstackBANK0,global,class=BANK0,space=1,delta=1,noexec
    11                           	psect	maintext,global,class=CODE,merge=1,split=1,delta=2
    12                           	psect	text1,local,class=CODE,merge=1,delta=2
    13                           	psect	text2,local,class=CODE,merge=1,delta=2
    14                           	psect	text3,local,class=CODE,merge=1,delta=2
    15                           	psect	text4,local,class=CODE,merge=1,delta=2
    16                           	psect	text5,local,class=CODE,merge=1,delta=2
    17                           	psect	text6,local,class=CODE,merge=1,delta=2
    18                           	psect	text7,local,class=CODE,merge=1,delta=2
    19                           	psect	text8,local,class=CODE,merge=1,delta=2
    20                           	psect	text9,local,class=CODE,merge=1,delta=2
    21                           	psect	text10,local,class=CODE,merge=1,delta=2
    22                           	psect	text11,local,class=CODE,merge=1,delta=2
    23                           	psect	text12,local,class=CODE,merge=1,delta=2
    24                           	psect	text13,local,class=CODE,merge=1,delta=2
    25                           	psect	intentry,global,class=CODE,delta=2
    26                           	psect	text15,local,class=CODE,merge=1,delta=2
    27                           	psect	text16,local,class=CODE,merge=1,delta=2
    28                           	psect	text17,local,class=CODE,merge=1,delta=2
    29                           	psect	text18,local,class=CODE,merge=1,delta=2
    30                           	psect	text19,local,class=CODE,merge=1,delta=2
    31                           	psect	text20,local,class=CODE,merge=1,delta=2
    32                           	psect	config,global,abs,ovrld,class=CONFIG,space=4,delta=2,noexec
    33                           	dabs	1,0x7E,2
    34     0000                     
    35                           ; Version 2.20
    36                           ; Generated 12/02/2020 GMT
    37                           ; 
    38                           ; Copyright © 2020, Microchip Technology Inc. and its subsidiaries ("Microchip")
    39                           ; All rights reserved.
    40                           ; 
    41                           ; This software is developed by Microchip Technology Inc. and its subsidiaries ("Microch
      +                          ip").
    42                           ; 
    43                           ; Redistribution and use in source and binary forms, with or without modification, are
    44                           ; permitted provided that the following conditions are met:
    45                           ; 
    46                           ;     1. Redistributions of source code must retain the above copyright notice, this lis
      +                          t of
    47                           ;        conditions and the following disclaimer.
    48                           ; 
    49                           ;     2. Redistributions in binary form must reproduce the above copyright notice, this 
      +                          list
    50                           ;        of conditions and the following disclaimer in the documentation and/or other
    51                           ;        materials provided with the distribution.
    52                           ; 
    53                           ;     3. Microchip's name may not be used to endorse or promote products derived from th
      +                          is
    54                           ;        software without specific prior written permission.
    55                           ; 
    56                           ; THIS SOFTWARE IS PROVIDED BY MICROCHIP "AS IS" AND ANY EXPRESS OR IMPLIED WARRANTIES,
    57                           ; INCLUDING, BUT NOT LIMITED TO, THE IMPLIED WARRANTIES OF MERCHANTABILITY AND FITNESS F
      +                          OR
    58                           ; PURPOSE ARE DISCLAIMED.  IN NO EVENT SHALL MICROCHIP BE LIABLE FOR ANY DIRECT, INDIREC
      +                          T,
    59                           ; INCIDENTAL, SPECIAL, EXEMPLARY, OR CONSEQUENTIAL DAMAGES (INCLUDING BUT NOT LIMITED TO
    60                           ; PROCUREMENT OF SUBSTITUTE GOODS OR SERVICES; LOSS OF USE, DATA OR PROFITS; OR BUSINESS
    61                           ; INTERRUPTION) HOWSOEVER CAUSED AND ON ANY THEORY OF LIABILITY, WHETHER IN CONTRACT, ST
      +                          RICT
    62                           ; LIABILITY, OR TORT (INCLUDING NEGLIGENCE OR OTHERWISE) ARISING IN ANY WAY OUT OF THE U
      +                          SE OF
    63                           ; THIS SOFTWARE, EVEN IF ADVISED OF THE POSSIBILITY OF SUCH DAMAGE.
    64                           ; 
    65                           ; 
    66                           ; Code-generator required, PIC16F1936 Definitions
    67                           ; 
    68                           ; SFR Addresses
    69     0000                     	;# 
    70     0001                     	;# 
    71     0002                     	;# 
    72     0003                     	;# 
    73     0004                     	;# 
    74     0005                     	;# 
    75     0006                     	;# 
    76     0007                     	;# 
    77     0008                     	;# 
    78     0009                     	;# 
    79     000A                     	;# 
    80     000B                     	;# 
    81     000C                     	;# 
    82     000D                     	;# 
    83     000E                     	;# 
    84     0010                     	;# 
    85     0011                     	;# 
    86     0012                     	;# 
    87     0013                     	;# 
    88     0015                     	;# 
    89     0016                     	;# 
    90     0016                     	;# 
    91     0017                     	;# 
    92     0018                     	;# 
    93     0019                     	;# 
    94     001A                     	;# 
    95     001B                     	;# 
    96     001C                     	;# 
    97     001E                     	;# 
    98     001F                     	;# 
    99     008C                     	;# 
   100     008D                     	;# 
   101     008E                     	;# 
   102     0090                     	;# 
   103     0091                     	;# 
   104     0092                     	;# 
   105     0093                     	;# 
   106     0095                     	;# 
   107     0096                     	;# 
   108     0097                     	;# 
   109     0098                     	;# 
   110     0099                     	;# 
   111     009A                     	;# 
   112     009B                     	;# 
   113     009B                     	;# 
   114     009C                     	;# 
   115     009D                     	;# 
   116     009E                     	;# 
   117     010C                     	;# 
   118     010D                     	;# 
   119     010E                     	;# 
   120     0110                     	;# 
   121     0111                     	;# 
   122     0112                     	;# 
   123     0113                     	;# 
   124     0114                     	;# 
   125     0115                     	;# 
   126     0116                     	;# 
   127     0117                     	;# 
   128     0118                     	;# 
   129     0119                     	;# 
   130     011A                     	;# 
   131     011B                     	;# 
   132     011D                     	;# 
   133     018C                     	;# 
   134     018D                     	;# 
   135     0191                     	;# 
   136     0191                     	;# 
   137     0192                     	;# 
   138     0193                     	;# 
   139     0193                     	;# 
   140     0193                     	;# 
   141     0194                     	;# 
   142     0195                     	;# 
   143     0196                     	;# 
   144     0199                     	;# 
   145     019A                     	;# 
   146     019B                     	;# 
   147     019B                     	;# 
   148     019B                     	;# 
   149     019B                     	;# 
   150     019C                     	;# 
   151     019C                     	;# 
   152     019D                     	;# 
   153     019E                     	;# 
   154     019F                     	;# 
   155     020D                     	;# 
   156     0210                     	;# 
   157     0211                     	;# 
   158     0212                     	;# 
   159     0213                     	;# 
   160     0214                     	;# 
   161     0215                     	;# 
   162     0215                     	;# 
   163     0216                     	;# 
   164     0217                     	;# 
   165     0291                     	;# 
   166     0291                     	;# 
   167     0292                     	;# 
   168     0293                     	;# 
   169     0294                     	;# 
   170     0295                     	;# 
   171     0295                     	;# 
   172     0296                     	;# 
   173     0298                     	;# 
   174     0298                     	;# 
   175     0299                     	;# 
   176     029A                     	;# 
   177     029B                     	;# 
   178     029C                     	;# 
   179     029C                     	;# 
   180     029D                     	;# 
   181     029E                     	;# 
   182     029F                     	;# 
   183     0311                     	;# 
   184     0311                     	;# 
   185     0312                     	;# 
   186     0313                     	;# 
   187     0314                     	;# 
   188     0315                     	;# 
   189     0315                     	;# 
   190     0316                     	;# 
   191     0318                     	;# 
   192     0318                     	;# 
   193     0319                     	;# 
   194     031A                     	;# 
   195     031C                     	;# 
   196     031C                     	;# 
   197     031D                     	;# 
   198     031E                     	;# 
   199     0394                     	;# 
   200     0395                     	;# 
   201     0396                     	;# 
   202     0415                     	;# 
   203     0416                     	;# 
   204     0417                     	;# 
   205     041C                     	;# 
   206     041D                     	;# 
   207     041E                     	;# 
   208     0791                     	;# 
   209     0792                     	;# 
   210     0793                     	;# 
   211     0794                     	;# 
   212     0795                     	;# 
   213     0798                     	;# 
   214     0799                     	;# 
   215     07A0                     	;# 
   216     07A1                     	;# 
   217     07A3                     	;# 
   218     07A4                     	;# 
   219     07A6                     	;# 
   220     07A7                     	;# 
   221     07A9                     	;# 
   222     07AA                     	;# 
   223     0FE4                     	;# 
   224     0FE5                     	;# 
   225     0FE6                     	;# 
   226     0FE7                     	;# 
   227     0FE8                     	;# 
   228     0FE9                     	;# 
   229     0FEA                     	;# 
   230     0FEB                     	;# 
   231     0FED                     	;# 
   232     0FEE                     	;# 
   233     0FEF                     	;# 
   234     0000                     	;# 
   235     0001                     	;# 
   236     0002                     	;# 
   237     0003                     	;# 
   238     0004                     	;# 
   239     0005                     	;# 
   240     0006                     	;# 
   241     0007                     	;# 
   242     0008                     	;# 
   243     0009                     	;# 
   244     000A                     	;# 
   245     000B                     	;# 
   246     000C                     	;# 
   247     000D                     	;# 
   248     000E                     	;# 
   249     0010                     	;# 
   250     0011                     	;# 
   251     0012                     	;# 
   252     0013                     	;# 
   253     0015                     	;# 
   254     0016                     	;# 
   255     0016                     	;# 
   256     0017                     	;# 
   257     0018                     	;# 
   258     0019                     	;# 
   259     001A                     	;# 
   260     001B                     	;# 
   261     001C                     	;# 
   262     001E                     	;# 
   263     001F                     	;# 
   264     008C                     	;# 
   265     008D                     	;# 
   266     008E                     	;# 
   267     0090                     	;# 
   268     0091                     	;# 
   269     0092                     	;# 
   270     0093                     	;# 
   271     0095                     	;# 
   272     0096                     	;# 
   273     0097                     	;# 
   274     0098                     	;# 
   275     0099                     	;# 
   276     009A                     	;# 
   277     009B                     	;# 
   278     009B                     	;# 
   279     009C                     	;# 
   280     009D                     	;# 
   281     009E                     	;# 
   282     010C                     	;# 
   283     010D                     	;# 
   284     010E                     	;# 
   285     0110                     	;# 
   286     0111                     	;# 
   287     0112                     	;# 
   288     0113                     	;# 
   289     0114                     	;# 
   290     0115                     	;# 
   291     0116                     	;# 
   292     0117                     	;# 
   293     0118                     	;# 
   294     0119                     	;# 
   295     011A                     	;# 
   296     011B                     	;# 
   297     011D                     	;# 
   298     018C                     	;# 
   299     018D                     	;# 
   300     0191                     	;# 
   301     0191                     	;# 
   302     0192                     	;# 
   303     0193                     	;# 
   304     0193                     	;# 
   305     0193                     	;# 
   306     0194                     	;# 
   307     0195                     	;# 
   308     0196                     	;# 
   309     0199                     	;# 
   310     019A                     	;# 
   311     019B                     	;# 
   312     019B                     	;# 
   313     019B                     	;# 
   314     019B                     	;# 
   315     019C                     	;# 
   316     019C                     	;# 
   317     019D                     	;# 
   318     019E                     	;# 
   319     019F                     	;# 
   320     020D                     	;# 
   321     0210                     	;# 
   322     0211                     	;# 
   323     0212                     	;# 
   324     0213                     	;# 
   325     0214                     	;# 
   326     0215                     	;# 
   327     0215                     	;# 
   328     0216                     	;# 
   329     0217                     	;# 
   330     0291                     	;# 
   331     0291                     	;# 
   332     0292                     	;# 
   333     0293                     	;# 
   334     0294                     	;# 
   335     0295                     	;# 
   336     0295                     	;# 
   337     0296                     	;# 
   338     0298                     	;# 
   339     0298                     	;# 
   340     0299                     	;# 
   341     029A                     	;# 
   342     029B                     	;# 
   343     029C                     	;# 
   344     029C                     	;# 
   345     029D                     	;# 
   346     029E                     	;# 
   347     029F                     	;# 
   348     0311                     	;# 
   349     0311                     	;# 
   350     0312                     	;# 
   351     0313                     	;# 
   352     0314                     	;# 
   353     0315                     	;# 
   354     0315                     	;# 
   355     0316                     	;# 
   356     0318                     	;# 
   357     0318                     	;# 
   358     0319                     	;# 
   359     031A                     	;# 
   360     031C                     	;# 
   361     031C                     	;# 
   362     031D                     	;# 
   363     031E                     	;# 
   364     0394                     	;# 
   365     0395                     	;# 
   366     0396                     	;# 
   367     0415                     	;# 
   368     0416                     	;# 
   369     0417                     	;# 
   370     041C                     	;# 
   371     041D                     	;# 
   372     041E                     	;# 
   373     0791                     	;# 
   374     0792                     	;# 
   375     0793                     	;# 
   376     0794                     	;# 
   377     0795                     	;# 
   378     0798                     	;# 
   379     0799                     	;# 
   380     07A0                     	;# 
   381     07A1                     	;# 
   382     07A3                     	;# 
   383     07A4                     	;# 
   384     07A6                     	;# 
   385     07A7                     	;# 
   386     07A9                     	;# 
   387     07AA                     	;# 
   388     0FE4                     	;# 
   389     0FE5                     	;# 
   390     0FE6                     	;# 
   391     0FE7                     	;# 
   392     0FE8                     	;# 
   393     0FE9                     	;# 
   394     0FEA                     	;# 
   395     0FEB                     	;# 
   396     0FED                     	;# 
   397     0FEE                     	;# 
   398     0FEF                     	;# 
   399     0000                     	;# 
   400     0001                     	;# 
   401     0002                     	;# 
   402     0003                     	;# 
   403     0004                     	;# 
   404     0005                     	;# 
   405     0006                     	;# 
   406     0007                     	;# 
   407     0008                     	;# 
   408     0009                     	;# 
   409     000A                     	;# 
   410     000B                     	;# 
   411     000C                     	;# 
   412     000D                     	;# 
   413     000E                     	;# 
   414     0010                     	;# 
   415     0011                     	;# 
   416     0012                     	;# 
   417     0013                     	;# 
   418     0015                     	;# 
   419     0016                     	;# 
   420     0016                     	;# 
   421     0017                     	;# 
   422     0018                     	;# 
   423     0019                     	;# 
   424     001A                     	;# 
   425     001B                     	;# 
   426     001C                     	;# 
   427     001E                     	;# 
   428     001F                     	;# 
   429     008C                     	;# 
   430     008D                     	;# 
   431     008E                     	;# 
   432     0090                     	;# 
   433     0091                     	;# 
   434     0092                     	;# 
   435     0093                     	;# 
   436     0095                     	;# 
   437     0096                     	;# 
   438     0097                     	;# 
   439     0098                     	;# 
   440     0099                     	;# 
   441     009A                     	;# 
   442     009B                     	;# 
   443     009B                     	;# 
   444     009C                     	;# 
   445     009D                     	;# 
   446     009E                     	;# 
   447     010C                     	;# 
   448     010D                     	;# 
   449     010E                     	;# 
   450     0110                     	;# 
   451     0111                     	;# 
   452     0112                     	;# 
   453     0113                     	;# 
   454     0114                     	;# 
   455     0115                     	;# 
   456     0116                     	;# 
   457     0117                     	;# 
   458     0118                     	;# 
   459     0119                     	;# 
   460     011A                     	;# 
   461     011B                     	;# 
   462     011D                     	;# 
   463     018C                     	;# 
   464     018D                     	;# 
   465     0191                     	;# 
   466     0191                     	;# 
   467     0192                     	;# 
   468     0193                     	;# 
   469     0193                     	;# 
   470     0193                     	;# 
   471     0194                     	;# 
   472     0195                     	;# 
   473     0196                     	;# 
   474     0199                     	;# 
   475     019A                     	;# 
   476     019B                     	;# 
   477     019B                     	;# 
   478     019B                     	;# 
   479     019B                     	;# 
   480     019C                     	;# 
   481     019C                     	;# 
   482     019D                     	;# 
   483     019E                     	;# 
   484     019F                     	;# 
   485     020D                     	;# 
   486     0210                     	;# 
   487     0211                     	;# 
   488     0212                     	;# 
   489     0213                     	;# 
   490     0214                     	;# 
   491     0215                     	;# 
   492     0215                     	;# 
   493     0216                     	;# 
   494     0217                     	;# 
   495     0291                     	;# 
   496     0291                     	;# 
   497     0292                     	;# 
   498     0293                     	;# 
   499     0294                     	;# 
   500     0295                     	;# 
   501     0295                     	;# 
   502     0296                     	;# 
   503     0298                     	;# 
   504     0298                     	;# 
   505     0299                     	;# 
   506     029A                     	;# 
   507     029B                     	;# 
   508     029C                     	;# 
   509     029C                     	;# 
   510     029D                     	;# 
   511     029E                     	;# 
   512     029F                     	;# 
   513     0311                     	;# 
   514     0311                     	;# 
   515     0312                     	;# 
   516     0313                     	;# 
   517     0314                     	;# 
   518     0315                     	;# 
   519     0315                     	;# 
   520     0316                     	;# 
   521     0318                     	;# 
   522     0318                     	;# 
   523     0319                     	;# 
   524     031A                     	;# 
   525     031C                     	;# 
   526     031C                     	;# 
   527     031D                     	;# 
   528     031E                     	;# 
   529     0394                     	;# 
   530     0395                     	;# 
   531     0396                     	;# 
   532     0415                     	;# 
   533     0416                     	;# 
   534     0417                     	;# 
   535     041C                     	;# 
   536     041D                     	;# 
   537     041E                     	;# 
   538     0791                     	;# 
   539     0792                     	;# 
   540     0793                     	;# 
   541     0794                     	;# 
   542     0795                     	;# 
   543     0798                     	;# 
   544     0799                     	;# 
   545     07A0                     	;# 
   546     07A1                     	;# 
   547     07A3                     	;# 
   548     07A4                     	;# 
   549     07A6                     	;# 
   550     07A7                     	;# 
   551     07A9                     	;# 
   552     07AA                     	;# 
   553     0FE4                     	;# 
   554     0FE5                     	;# 
   555     0FE6                     	;# 
   556     0FE7                     	;# 
   557     0FE8                     	;# 
   558     0FE9                     	;# 
   559     0FEA                     	;# 
   560     0FEB                     	;# 
   561     0FED                     	;# 
   562     0FEE                     	;# 
   563     0FEF                     	;# 
   564     0000                     	;# 
   565     0001                     	;# 
   566     0002                     	;# 
   567     0003                     	;# 
   568     0004                     	;# 
   569     0005                     	;# 
   570     0006                     	;# 
   571     0007                     	;# 
   572     0008                     	;# 
   573     0009                     	;# 
   574     000A                     	;# 
   575     000B                     	;# 
   576     000C                     	;# 
   577     000D                     	;# 
   578     000E                     	;# 
   579     0010                     	;# 
   580     0011                     	;# 
   581     0012                     	;# 
   582     0013                     	;# 
   583     0015                     	;# 
   584     0016                     	;# 
   585     0016                     	;# 
   586     0017                     	;# 
   587     0018                     	;# 
   588     0019                     	;# 
   589     001A                     	;# 
   590     001B                     	;# 
   591     001C                     	;# 
   592     001E                     	;# 
   593     001F                     	;# 
   594     008C                     	;# 
   595     008D                     	;# 
   596     008E                     	;# 
   597     0090                     	;# 
   598     0091                     	;# 
   599     0092                     	;# 
   600     0093                     	;# 
   601     0095                     	;# 
   602     0096                     	;# 
   603     0097                     	;# 
   604     0098                     	;# 
   605     0099                     	;# 
   606     009A                     	;# 
   607     009B                     	;# 
   608     009B                     	;# 
   609     009C                     	;# 
   610     009D                     	;# 
   611     009E                     	;# 
   612     010C                     	;# 
   613     010D                     	;# 
   614     010E                     	;# 
   615     0110                     	;# 
   616     0111                     	;# 
   617     0112                     	;# 
   618     0113                     	;# 
   619     0114                     	;# 
   620     0115                     	;# 
   621     0116                     	;# 
   622     0117                     	;# 
   623     0118                     	;# 
   624     0119                     	;# 
   625     011A                     	;# 
   626     011B                     	;# 
   627     011D                     	;# 
   628     018C                     	;# 
   629     018D                     	;# 
   630     0191                     	;# 
   631     0191                     	;# 
   632     0192                     	;# 
   633     0193                     	;# 
   634     0193                     	;# 
   635     0193                     	;# 
   636     0194                     	;# 
   637     0195                     	;# 
   638     0196                     	;# 
   639     0199                     	;# 
   640     019A                     	;# 
   641     019B                     	;# 
   642     019B                     	;# 
   643     019B                     	;# 
   644     019B                     	;# 
   645     019C                     	;# 
   646     019C                     	;# 
   647     019D                     	;# 
   648     019E                     	;# 
   649     019F                     	;# 
   650     020D                     	;# 
   651     0210                     	;# 
   652     0211                     	;# 
   653     0212                     	;# 
   654     0213                     	;# 
   655     0214                     	;# 
   656     0215                     	;# 
   657     0215                     	;# 
   658     0216                     	;# 
   659     0217                     	;# 
   660     0291                     	;# 
   661     0291                     	;# 
   662     0292                     	;# 
   663     0293                     	;# 
   664     0294                     	;# 
   665     0295                     	;# 
   666     0295                     	;# 
   667     0296                     	;# 
   668     0298                     	;# 
   669     0298                     	;# 
   670     0299                     	;# 
   671     029A                     	;# 
   672     029B                     	;# 
   673     029C                     	;# 
   674     029C                     	;# 
   675     029D                     	;# 
   676     029E                     	;# 
   677     029F                     	;# 
   678     0311                     	;# 
   679     0311                     	;# 
   680     0312                     	;# 
   681     0313                     	;# 
   682     0314                     	;# 
   683     0315                     	;# 
   684     0315                     	;# 
   685     0316                     	;# 
   686     0318                     	;# 
   687     0318                     	;# 
   688     0319                     	;# 
   689     031A                     	;# 
   690     031C                     	;# 
   691     031C                     	;# 
   692     031D                     	;# 
   693     031E                     	;# 
   694     0394                     	;# 
   695     0395                     	;# 
   696     0396                     	;# 
   697     0415                     	;# 
   698     0416                     	;# 
   699     0417                     	;# 
   700     041C                     	;# 
   701     041D                     	;# 
   702     041E                     	;# 
   703     0791                     	;# 
   704     0792                     	;# 
   705     0793                     	;# 
   706     0794                     	;# 
   707     0795                     	;# 
   708     0798                     	;# 
   709     0799                     	;# 
   710     07A0                     	;# 
   711     07A1                     	;# 
   712     07A3                     	;# 
   713     07A4                     	;# 
   714     07A6                     	;# 
   715     07A7                     	;# 
   716     07A9                     	;# 
   717     07AA                     	;# 
   718     0FE4                     	;# 
   719     0FE5                     	;# 
   720     0FE6                     	;# 
   721     0FE7                     	;# 
   722     0FE8                     	;# 
   723     0FE9                     	;# 
   724     0FEA                     	;# 
   725     0FEB                     	;# 
   726     0FED                     	;# 
   727     0FEE                     	;# 
   728     0FEF                     	;# 
   729     0000                     	;# 
   730     0001                     	;# 
   731     0002                     	;# 
   732     0003                     	;# 
   733     0004                     	;# 
   734     0005                     	;# 
   735     0006                     	;# 
   736     0007                     	;# 
   737     0008                     	;# 
   738     0009                     	;# 
   739     000A                     	;# 
   740     000B                     	;# 
   741     000C                     	;# 
   742     000D                     	;# 
   743     000E                     	;# 
   744     0010                     	;# 
   745     0011                     	;# 
   746     0012                     	;# 
   747     0013                     	;# 
   748     0015                     	;# 
   749     0016                     	;# 
   750     0016                     	;# 
   751     0017                     	;# 
   752     0018                     	;# 
   753     0019                     	;# 
   754     001A                     	;# 
   755     001B                     	;# 
   756     001C                     	;# 
   757     001E                     	;# 
   758     001F                     	;# 
   759     008C                     	;# 
   760     008D                     	;# 
   761     008E                     	;# 
   762     0090                     	;# 
   763     0091                     	;# 
   764     0092                     	;# 
   765     0093                     	;# 
   766     0095                     	;# 
   767     0096                     	;# 
   768     0097                     	;# 
   769     0098                     	;# 
   770     0099                     	;# 
   771     009A                     	;# 
   772     009B                     	;# 
   773     009B                     	;# 
   774     009C                     	;# 
   775     009D                     	;# 
   776     009E                     	;# 
   777     010C                     	;# 
   778     010D                     	;# 
   779     010E                     	;# 
   780     0110                     	;# 
   781     0111                     	;# 
   782     0112                     	;# 
   783     0113                     	;# 
   784     0114                     	;# 
   785     0115                     	;# 
   786     0116                     	;# 
   787     0117                     	;# 
   788     0118                     	;# 
   789     0119                     	;# 
   790     011A                     	;# 
   791     011B                     	;# 
   792     011D                     	;# 
   793     018C                     	;# 
   794     018D                     	;# 
   795     0191                     	;# 
   796     0191                     	;# 
   797     0192                     	;# 
   798     0193                     	;# 
   799     0193                     	;# 
   800     0193                     	;# 
   801     0194                     	;# 
   802     0195                     	;# 
   803     0196                     	;# 
   804     0199                     	;# 
   805     019A                     	;# 
   806     019B                     	;# 
   807     019B                     	;# 
   808     019B                     	;# 
   809     019B                     	;# 
   810     019C                     	;# 
   811     019C                     	;# 
   812     019D                     	;# 
   813     019E                     	;# 
   814     019F                     	;# 
   815     020D                     	;# 
   816     0210                     	;# 
   817     0211                     	;# 
   818     0212                     	;# 
   819     0213                     	;# 
   820     0214                     	;# 
   821     0215                     	;# 
   822     0215                     	;# 
   823     0216                     	;# 
   824     0217                     	;# 
   825     0291                     	;# 
   826     0291                     	;# 
   827     0292                     	;# 
   828     0293                     	;# 
   829     0294                     	;# 
   830     0295                     	;# 
   831     0295                     	;# 
   832     0296                     	;# 
   833     0298                     	;# 
   834     0298                     	;# 
   835     0299                     	;# 
   836     029A                     	;# 
   837     029B                     	;# 
   838     029C                     	;# 
   839     029C                     	;# 
   840     029D                     	;# 
   841     029E                     	;# 
   842     029F                     	;# 
   843     0311                     	;# 
   844     0311                     	;# 
   845     0312                     	;# 
   846     0313                     	;# 
   847     0314                     	;# 
   848     0315                     	;# 
   849     0315                     	;# 
   850     0316                     	;# 
   851     0318                     	;# 
   852     0318                     	;# 
   853     0319                     	;# 
   854     031A                     	;# 
   855     031C                     	;# 
   856     031C                     	;# 
   857     031D                     	;# 
   858     031E                     	;# 
   859     0394                     	;# 
   860     0395                     	;# 
   861     0396                     	;# 
   862     0415                     	;# 
   863     0416                     	;# 
   864     0417                     	;# 
   865     041C                     	;# 
   866     041D                     	;# 
   867     041E                     	;# 
   868     0791                     	;# 
   869     0792                     	;# 
   870     0793                     	;# 
   871     0794                     	;# 
   872     0795                     	;# 
   873     0798                     	;# 
   874     0799                     	;# 
   875     07A0                     	;# 
   876     07A1                     	;# 
   877     07A3                     	;# 
   878     07A4                     	;# 
   879     07A6                     	;# 
   880     07A7                     	;# 
   881     07A9                     	;# 
   882     07AA                     	;# 
   883     0FE4                     	;# 
   884     0FE5                     	;# 
   885     0FE6                     	;# 
   886     0FE7                     	;# 
   887     0FE8                     	;# 
   888     0FE9                     	;# 
   889     0FEA                     	;# 
   890     0FEB                     	;# 
   891     0FED                     	;# 
   892     0FEE                     	;# 
   893     0FEF                     	;# 
   894     0000                     	;# 
   895     0001                     	;# 
   896     0002                     	;# 
   897     0003                     	;# 
   898     0004                     	;# 
   899     0005                     	;# 
   900     0006                     	;# 
   901     0007                     	;# 
   902     0008                     	;# 
   903     0009                     	;# 
   904     000A                     	;# 
   905     000B                     	;# 
   906     000C                     	;# 
   907     000D                     	;# 
   908     000E                     	;# 
   909     0010                     	;# 
   910     0011                     	;# 
   911     0012                     	;# 
   912     0013                     	;# 
   913     0015                     	;# 
   914     0016                     	;# 
   915     0016                     	;# 
   916     0017                     	;# 
   917     0018                     	;# 
   918     0019                     	;# 
   919     001A                     	;# 
   920     001B                     	;# 
   921     001C                     	;# 
   922     001E                     	;# 
   923     001F                     	;# 
   924     008C                     	;# 
   925     008D                     	;# 
   926     008E                     	;# 
   927     0090                     	;# 
   928     0091                     	;# 
   929     0092                     	;# 
   930     0093                     	;# 
   931     0095                     	;# 
   932     0096                     	;# 
   933     0097                     	;# 
   934     0098                     	;# 
   935     0099                     	;# 
   936     009A                     	;# 
   937     009B                     	;# 
   938     009B                     	;# 
   939     009C                     	;# 
   940     009D                     	;# 
   941     009E                     	;# 
   942     010C                     	;# 
   943     010D                     	;# 
   944     010E                     	;# 
   945     0110                     	;# 
   946     0111                     	;# 
   947     0112                     	;# 
   948     0113                     	;# 
   949     0114                     	;# 
   950     0115                     	;# 
   951     0116                     	;# 
   952     0117                     	;# 
   953     0118                     	;# 
   954     0119                     	;# 
   955     011A                     	;# 
   956     011B                     	;# 
   957     011D                     	;# 
   958     018C                     	;# 
   959     018D                     	;# 
   960     0191                     	;# 
   961     0191                     	;# 
   962     0192                     	;# 
   963     0193                     	;# 
   964     0193                     	;# 
   965     0193                     	;# 
   966     0194                     	;# 
   967     0195                     	;# 
   968     0196                     	;# 
   969     0199                     	;# 
   970     019A                     	;# 
   971     019B                     	;# 
   972     019B                     	;# 
   973     019B                     	;# 
   974     019B                     	;# 
   975     019C                     	;# 
   976     019C                     	;# 
   977     019D                     	;# 
   978     019E                     	;# 
   979     019F                     	;# 
   980     020D                     	;# 
   981     0210                     	;# 
   982     0211                     	;# 
   983     0212                     	;# 
   984     0213                     	;# 
   985     0214                     	;# 
   986     0215                     	;# 
   987     0215                     	;# 
   988     0216                     	;# 
   989     0217                     	;# 
   990     0291                     	;# 
   991     0291                     	;# 
   992     0292                     	;# 
   993     0293                     	;# 
   994     0294                     	;# 
   995     0295                     	;# 
   996     0295                     	;# 
   997     0296                     	;# 
   998     0298                     	;# 
   999     0298                     	;# 
  1000     0299                     	;# 
  1001     029A                     	;# 
  1002     029B                     	;# 
  1003     029C                     	;# 
  1004     029C                     	;# 
  1005     029D                     	;# 
  1006     029E                     	;# 
  1007     029F                     	;# 
  1008     0311                     	;# 
  1009     0311                     	;# 
  1010     0312                     	;# 
  1011     0313                     	;# 
  1012     0314                     	;# 
  1013     0315                     	;# 
  1014     0315                     	;# 
  1015     0316                     	;# 
  1016     0318                     	;# 
  1017     0318                     	;# 
  1018     0319                     	;# 
  1019     031A                     	;# 
  1020     031C                     	;# 
  1021     031C                     	;# 
  1022     031D                     	;# 
  1023     031E                     	;# 
  1024     0394                     	;# 
  1025     0395                     	;# 
  1026     0396                     	;# 
  1027     0415                     	;# 
  1028     0416                     	;# 
  1029     0417                     	;# 
  1030     041C                     	;# 
  1031     041D                     	;# 
  1032     041E                     	;# 
  1033     0791                     	;# 
  1034     0792                     	;# 
  1035     0793                     	;# 
  1036     0794                     	;# 
  1037     0795                     	;# 
  1038     0798                     	;# 
  1039     0799                     	;# 
  1040     07A0                     	;# 
  1041     07A1                     	;# 
  1042     07A3                     	;# 
  1043     07A4                     	;# 
  1044     07A6                     	;# 
  1045     07A7                     	;# 
  1046     07A9                     	;# 
  1047     07AA                     	;# 
  1048     0FE4                     	;# 
  1049     0FE5                     	;# 
  1050     0FE6                     	;# 
  1051     0FE7                     	;# 
  1052     0FE8                     	;# 
  1053     0FE9                     	;# 
  1054     0FEA                     	;# 
  1055     0FEB                     	;# 
  1056     0FED                     	;# 
  1057     0FEE                     	;# 
  1058     0FEF                     	;# 
  1059     0000                     	;# 
  1060     0001                     	;# 
  1061     0002                     	;# 
  1062     0003                     	;# 
  1063     0004                     	;# 
  1064     0005                     	;# 
  1065     0006                     	;# 
  1066     0007                     	;# 
  1067     0008                     	;# 
  1068     0009                     	;# 
  1069     000A                     	;# 
  1070     000B                     	;# 
  1071     000C                     	;# 
  1072     000D                     	;# 
  1073     000E                     	;# 
  1074     0010                     	;# 
  1075     0011                     	;# 
  1076     0012                     	;# 
  1077     0013                     	;# 
  1078     0015                     	;# 
  1079     0016                     	;# 
  1080     0016                     	;# 
  1081     0017                     	;# 
  1082     0018                     	;# 
  1083     0019                     	;# 
  1084     001A                     	;# 
  1085     001B                     	;# 
  1086     001C                     	;# 
  1087     001E                     	;# 
  1088     001F                     	;# 
  1089     008C                     	;# 
  1090     008D                     	;# 
  1091     008E                     	;# 
  1092     0090                     	;# 
  1093     0091                     	;# 
  1094     0092                     	;# 
  1095     0093                     	;# 
  1096     0095                     	;# 
  1097     0096                     	;# 
  1098     0097                     	;# 
  1099     0098                     	;# 
  1100     0099                     	;# 
  1101     009A                     	;# 
  1102     009B                     	;# 
  1103     009B                     	;# 
  1104     009C                     	;# 
  1105     009D                     	;# 
  1106     009E                     	;# 
  1107     010C                     	;# 
  1108     010D                     	;# 
  1109     010E                     	;# 
  1110     0110                     	;# 
  1111     0111                     	;# 
  1112     0112                     	;# 
  1113     0113                     	;# 
  1114     0114                     	;# 
  1115     0115                     	;# 
  1116     0116                     	;# 
  1117     0117                     	;# 
  1118     0118                     	;# 
  1119     0119                     	;# 
  1120     011A                     	;# 
  1121     011B                     	;# 
  1122     011D                     	;# 
  1123     018C                     	;# 
  1124     018D                     	;# 
  1125     0191                     	;# 
  1126     0191                     	;# 
  1127     0192                     	;# 
  1128     0193                     	;# 
  1129     0193                     	;# 
  1130     0193                     	;# 
  1131     0194                     	;# 
  1132     0195                     	;# 
  1133     0196                     	;# 
  1134     0199                     	;# 
  1135     019A                     	;# 
  1136     019B                     	;# 
  1137     019B                     	;# 
  1138     019B                     	;# 
  1139     019B                     	;# 
  1140     019C                     	;# 
  1141     019C                     	;# 
  1142     019D                     	;# 
  1143     019E                     	;# 
  1144     019F                     	;# 
  1145     020D                     	;# 
  1146     0210                     	;# 
  1147     0211                     	;# 
  1148     0212                     	;# 
  1149     0213                     	;# 
  1150     0214                     	;# 
  1151     0215                     	;# 
  1152     0215                     	;# 
  1153     0216                     	;# 
  1154     0217                     	;# 
  1155     0291                     	;# 
  1156     0291                     	;# 
  1157     0292                     	;# 
  1158     0293                     	;# 
  1159     0294                     	;# 
  1160     0295                     	;# 
  1161     0295                     	;# 
  1162     0296                     	;# 
  1163     0298                     	;# 
  1164     0298                     	;# 
  1165     0299                     	;# 
  1166     029A                     	;# 
  1167     029B                     	;# 
  1168     029C                     	;# 
  1169     029C                     	;# 
  1170     029D                     	;# 
  1171     029E                     	;# 
  1172     029F                     	;# 
  1173     0311                     	;# 
  1174     0311                     	;# 
  1175     0312                     	;# 
  1176     0313                     	;# 
  1177     0314                     	;# 
  1178     0315                     	;# 
  1179     0315                     	;# 
  1180     0316                     	;# 
  1181     0318                     	;# 
  1182     0318                     	;# 
  1183     0319                     	;# 
  1184     031A                     	;# 
  1185     031C                     	;# 
  1186     031C                     	;# 
  1187     031D                     	;# 
  1188     031E                     	;# 
  1189     0394                     	;# 
  1190     0395                     	;# 
  1191     0396                     	;# 
  1192     0415                     	;# 
  1193     0416                     	;# 
  1194     0417                     	;# 
  1195     041C                     	;# 
  1196     041D                     	;# 
  1197     041E                     	;# 
  1198     0791                     	;# 
  1199     0792                     	;# 
  1200     0793                     	;# 
  1201     0794                     	;# 
  1202     0795                     	;# 
  1203     0798                     	;# 
  1204     0799                     	;# 
  1205     07A0                     	;# 
  1206     07A1                     	;# 
  1207     07A3                     	;# 
  1208     07A4                     	;# 
  1209     07A6                     	;# 
  1210     07A7                     	;# 
  1211     07A9                     	;# 
  1212     07AA                     	;# 
  1213     0FE4                     	;# 
  1214     0FE5                     	;# 
  1215     0FE6                     	;# 
  1216     0FE7                     	;# 
  1217     0FE8                     	;# 
  1218     0FE9                     	;# 
  1219     0FEA                     	;# 
  1220     0FEB                     	;# 
  1221     0FED                     	;# 
  1222     0FEE                     	;# 
  1223     0FEF                     	;# 
  1224     0000                     	;# 
  1225     0001                     	;# 
  1226     0002                     	;# 
  1227     0003                     	;# 
  1228     0004                     	;# 
  1229     0005                     	;# 
  1230     0006                     	;# 
  1231     0007                     	;# 
  1232     0008                     	;# 
  1233     0009                     	;# 
  1234     000A                     	;# 
  1235     000B                     	;# 
  1236     000C                     	;# 
  1237     000D                     	;# 
  1238     000E                     	;# 
  1239     0010                     	;# 
  1240     0011                     	;# 
  1241     0012                     	;# 
  1242     0013                     	;# 
  1243     0015                     	;# 
  1244     0016                     	;# 
  1245     0016                     	;# 
  1246     0017                     	;# 
  1247     0018                     	;# 
  1248     0019                     	;# 
  1249     001A                     	;# 
  1250     001B                     	;# 
  1251     001C                     	;# 
  1252     001E                     	;# 
  1253     001F                     	;# 
  1254     008C                     	;# 
  1255     008D                     	;# 
  1256     008E                     	;# 
  1257     0090                     	;# 
  1258     0091                     	;# 
  1259     0092                     	;# 
  1260     0093                     	;# 
  1261     0095                     	;# 
  1262     0096                     	;# 
  1263     0097                     	;# 
  1264     0098                     	;# 
  1265     0099                     	;# 
  1266     009A                     	;# 
  1267     009B                     	;# 
  1268     009B                     	;# 
  1269     009C                     	;# 
  1270     009D                     	;# 
  1271     009E                     	;# 
  1272     010C                     	;# 
  1273     010D                     	;# 
  1274     010E                     	;# 
  1275     0110                     	;# 
  1276     0111                     	;# 
  1277     0112                     	;# 
  1278     0113                     	;# 
  1279     0114                     	;# 
  1280     0115                     	;# 
  1281     0116                     	;# 
  1282     0117                     	;# 
  1283     0118                     	;# 
  1284     0119                     	;# 
  1285     011A                     	;# 
  1286     011B                     	;# 
  1287     011D                     	;# 
  1288     018C                     	;# 
  1289     018D                     	;# 
  1290     0191                     	;# 
  1291     0191                     	;# 
  1292     0192                     	;# 
  1293     0193                     	;# 
  1294     0193                     	;# 
  1295     0193                     	;# 
  1296     0194                     	;# 
  1297     0195                     	;# 
  1298     0196                     	;# 
  1299     0199                     	;# 
  1300     019A                     	;# 
  1301     019B                     	;# 
  1302     019B                     	;# 
  1303     019B                     	;# 
  1304     019B                     	;# 
  1305     019C                     	;# 
  1306     019C                     	;# 
  1307     019D                     	;# 
  1308     019E                     	;# 
  1309     019F                     	;# 
  1310     020D                     	;# 
  1311     0210                     	;# 
  1312     0211                     	;# 
  1313     0212                     	;# 
  1314     0213                     	;# 
  1315     0214                     	;# 
  1316     0215                     	;# 
  1317     0215                     	;# 
  1318     0216                     	;# 
  1319     0217                     	;# 
  1320     0291                     	;# 
  1321     0291                     	;# 
  1322     0292                     	;# 
  1323     0293                     	;# 
  1324     0294                     	;# 
  1325     0295                     	;# 
  1326     0295                     	;# 
  1327     0296                     	;# 
  1328     0298                     	;# 
  1329     0298                     	;# 
  1330     0299                     	;# 
  1331     029A                     	;# 
  1332     029B                     	;# 
  1333     029C                     	;# 
  1334     029C                     	;# 
  1335     029D                     	;# 
  1336     029E                     	;# 
  1337     029F                     	;# 
  1338     0311                     	;# 
  1339     0311                     	;# 
  1340     0312                     	;# 
  1341     0313                     	;# 
  1342     0314                     	;# 
  1343     0315                     	;# 
  1344     0315                     	;# 
  1345     0316                     	;# 
  1346     0318                     	;# 
  1347     0318                     	;# 
  1348     0319                     	;# 
  1349     031A                     	;# 
  1350     031C                     	;# 
  1351     031C                     	;# 
  1352     031D                     	;# 
  1353     031E                     	;# 
  1354     0394                     	;# 
  1355     0395                     	;# 
  1356     0396                     	;# 
  1357     0415                     	;# 
  1358     0416                     	;# 
  1359     0417                     	;# 
  1360     041C                     	;# 
  1361     041D                     	;# 
  1362     041E                     	;# 
  1363     0791                     	;# 
  1364     0792                     	;# 
  1365     0793                     	;# 
  1366     0794                     	;# 
  1367     0795                     	;# 
  1368     0798                     	;# 
  1369     0799                     	;# 
  1370     07A0                     	;# 
  1371     07A1                     	;# 
  1372     07A3                     	;# 
  1373     07A4                     	;# 
  1374     07A6                     	;# 
  1375     07A7                     	;# 
  1376     07A9                     	;# 
  1377     07AA                     	;# 
  1378     0FE4                     	;# 
  1379     0FE5                     	;# 
  1380     0FE6                     	;# 
  1381     0FE7                     	;# 
  1382     0FE8                     	;# 
  1383     0FE9                     	;# 
  1384     0FEA                     	;# 
  1385     0FEB                     	;# 
  1386     0FED                     	;# 
  1387     0FEE                     	;# 
  1388     0FEF                     	;# 
  1389     0000                     	;# 
  1390     0001                     	;# 
  1391     0002                     	;# 
  1392     0003                     	;# 
  1393     0004                     	;# 
  1394     0005                     	;# 
  1395     0006                     	;# 
  1396     0007                     	;# 
  1397     0008                     	;# 
  1398     0009                     	;# 
  1399     000A                     	;# 
  1400     000B                     	;# 
  1401     000C                     	;# 
  1402     000D                     	;# 
  1403     000E                     	;# 
  1404     0010                     	;# 
  1405     0011                     	;# 
  1406     0012                     	;# 
  1407     0013                     	;# 
  1408     0015                     	;# 
  1409     0016                     	;# 
  1410     0016                     	;# 
  1411     0017                     	;# 
  1412     0018                     	;# 
  1413     0019                     	;# 
  1414     001A                     	;# 
  1415     001B                     	;# 
  1416     001C                     	;# 
  1417     001E                     	;# 
  1418     001F                     	;# 
  1419     008C                     	;# 
  1420     008D                     	;# 
  1421     008E                     	;# 
  1422     0090                     	;# 
  1423     0091                     	;# 
  1424     0092                     	;# 
  1425     0093                     	;# 
  1426     0095                     	;# 
  1427     0096                     	;# 
  1428     0097                     	;# 
  1429     0098                     	;# 
  1430     0099                     	;# 
  1431     009A                     	;# 
  1432     009B                     	;# 
  1433     009B                     	;# 
  1434     009C                     	;# 
  1435     009D                     	;# 
  1436     009E                     	;# 
  1437     010C                     	;# 
  1438     010D                     	;# 
  1439     010E                     	;# 
  1440     0110                     	;# 
  1441     0111                     	;# 
  1442     0112                     	;# 
  1443     0113                     	;# 
  1444     0114                     	;# 
  1445     0115                     	;# 
  1446     0116                     	;# 
  1447     0117                     	;# 
  1448     0118                     	;# 
  1449     0119                     	;# 
  1450     011A                     	;# 
  1451     011B                     	;# 
  1452     011D                     	;# 
  1453     018C                     	;# 
  1454     018D                     	;# 
  1455     0191                     	;# 
  1456     0191                     	;# 
  1457     0192                     	;# 
  1458     0193                     	;# 
  1459     0193                     	;# 
  1460     0193                     	;# 
  1461     0194                     	;# 
  1462     0195                     	;# 
  1463     0196                     	;# 
  1464     0199                     	;# 
  1465     019A                     	;# 
  1466     019B                     	;# 
  1467     019B                     	;# 
  1468     019B                     	;# 
  1469     019B                     	;# 
  1470     019C                     	;# 
  1471     019C                     	;# 
  1472     019D                     	;# 
  1473     019E                     	;# 
  1474     019F                     	;# 
  1475     020D                     	;# 
  1476     0210                     	;# 
  1477     0211                     	;# 
  1478     0212                     	;# 
  1479     0213                     	;# 
  1480     0214                     	;# 
  1481     0215                     	;# 
  1482     0215                     	;# 
  1483     0216                     	;# 
  1484     0217                     	;# 
  1485     0291                     	;# 
  1486     0291                     	;# 
  1487     0292                     	;# 
  1488     0293                     	;# 
  1489     0294                     	;# 
  1490     0295                     	;# 
  1491     0295                     	;# 
  1492     0296                     	;# 
  1493     0298                     	;# 
  1494     0298                     	;# 
  1495     0299                     	;# 
  1496     029A                     	;# 
  1497     029B                     	;# 
  1498     029C                     	;# 
  1499     029C                     	;# 
  1500     029D                     	;# 
  1501     029E                     	;# 
  1502     029F                     	;# 
  1503     0311                     	;# 
  1504     0311                     	;# 
  1505     0312                     	;# 
  1506     0313                     	;# 
  1507     0314                     	;# 
  1508     0315                     	;# 
  1509     0315                     	;# 
  1510     0316                     	;# 
  1511     0318                     	;# 
  1512     0318                     	;# 
  1513     0319                     	;# 
  1514     031A                     	;# 
  1515     031C                     	;# 
  1516     031C                     	;# 
  1517     031D                     	;# 
  1518     031E                     	;# 
  1519     0394                     	;# 
  1520     0395                     	;# 
  1521     0396                     	;# 
  1522     0415                     	;# 
  1523     0416                     	;# 
  1524     0417                     	;# 
  1525     041C                     	;# 
  1526     041D                     	;# 
  1527     041E                     	;# 
  1528     0791                     	;# 
  1529     0792                     	;# 
  1530     0793                     	;# 
  1531     0794                     	;# 
  1532     0795                     	;# 
  1533     0798                     	;# 
  1534     0799                     	;# 
  1535     07A0                     	;# 
  1536     07A1                     	;# 
  1537     07A3                     	;# 
  1538     07A4                     	;# 
  1539     07A6                     	;# 
  1540     07A7                     	;# 
  1541     07A9                     	;# 
  1542     07AA                     	;# 
  1543     0FE4                     	;# 
  1544     0FE5                     	;# 
  1545     0FE6                     	;# 
  1546     0FE7                     	;# 
  1547     0FE8                     	;# 
  1548     0FE9                     	;# 
  1549     0FEA                     	;# 
  1550     0FEB                     	;# 
  1551     0FED                     	;# 
  1552     0FEE                     	;# 
  1553     0FEF                     	;# 
  1554                           
  1555                           	psect	stringtext1
  1556     0035                     __pstringtext1:
  1557     0035                     _crc8_table_fixed:
  1558     0035  3400               	retlw	0
  1559     0036  34D0               	retlw	208
  1560     0037  3431               	retlw	49
  1561     0038  34E1               	retlw	225
  1562     0039  3462               	retlw	98
  1563     003A  34B2               	retlw	178
  1564     003B  3453               	retlw	83
  1565     003C  3483               	retlw	131
  1566     003D  34C4               	retlw	196
  1567     003E  3414               	retlw	20
  1568     003F  34F5               	retlw	245
  1569     0040  3425               	retlw	37
  1570     0041  34A6               	retlw	166
  1571     0042  3476               	retlw	118
  1572     0043  3497               	retlw	151
  1573     0044  3447               	retlw	71
  1574     0045  3419               	retlw	25
  1575     0046  34C9               	retlw	201
  1576     0047  3428               	retlw	40
  1577     0048  34F8               	retlw	248
  1578     0049  347B               	retlw	123
  1579     004A  34AB               	retlw	171
  1580     004B  344A               	retlw	74
  1581     004C  349A               	retlw	154
  1582     004D  34DD               	retlw	221
  1583     004E  340D               	retlw	13
  1584     004F  34EC               	retlw	236
  1585     0050  343C               	retlw	60
  1586     0051  34BF               	retlw	191
  1587     0052  346F               	retlw	111
  1588     0053  348E               	retlw	142
  1589     0054  345E               	retlw	94
  1590     0055  3432               	retlw	50
  1591     0056  34E2               	retlw	226
  1592     0057  3403               	retlw	3
  1593     0058  34D3               	retlw	211
  1594     0059  3450               	retlw	80
  1595     005A  3480               	retlw	128
  1596     005B  3461               	retlw	97
  1597     005C  34B1               	retlw	177
  1598     005D  34F6               	retlw	246
  1599     005E  3426               	retlw	38
  1600     005F  34C7               	retlw	199
  1601     0060  3417               	retlw	23
  1602     0061  3494               	retlw	148
  1603     0062  3444               	retlw	68
  1604     0063  34A5               	retlw	165
  1605     0064  3475               	retlw	117
  1606     0065  342B               	retlw	43
  1607     0066  34FB               	retlw	251
  1608     0067  341A               	retlw	26
  1609     0068  34CA               	retlw	202
  1610     0069  3449               	retlw	73
  1611     006A  3499               	retlw	153
  1612     006B  3478               	retlw	120
  1613     006C  34A8               	retlw	168
  1614     006D  34EF               	retlw	239
  1615     006E  343F               	retlw	63
  1616     006F  34DE               	retlw	222
  1617     0070  340E               	retlw	14
  1618     0071  348D               	retlw	141
  1619     0072  345D               	retlw	93
  1620     0073  34BC               	retlw	188
  1621     0074  346C               	retlw	108
  1622     0075  3464               	retlw	100
  1623     0076  34B4               	retlw	180
  1624     0077  3455               	retlw	85
  1625     0078  3485               	retlw	133
  1626     0079  3406               	retlw	6
  1627     007A  34D6               	retlw	214
  1628     007B  3437               	retlw	55
  1629     007C  34E7               	retlw	231
  1630     007D  34A0               	retlw	160
  1631     007E  3470               	retlw	112
  1632     007F  3491               	retlw	145
  1633     0080  3441               	retlw	65
  1634     0081  34C2               	retlw	194
  1635     0082  3412               	retlw	18
  1636     0083  34F3               	retlw	243
  1637     0084  3423               	retlw	35
  1638     0085  347D               	retlw	125
  1639     0086  34AD               	retlw	173
  1640     0087  344C               	retlw	76
  1641     0088  349C               	retlw	156
  1642     0089  341F               	retlw	31
  1643     008A  34CF               	retlw	207
  1644     008B  342E               	retlw	46
  1645     008C  34FE               	retlw	254
  1646     008D  34B9               	retlw	185
  1647     008E  3469               	retlw	105
  1648     008F  3488               	retlw	136
  1649     0090  3458               	retlw	88
  1650     0091  34DB               	retlw	219
  1651     0092  340B               	retlw	11
  1652     0093  34EA               	retlw	234
  1653     0094  343A               	retlw	58
  1654     0095  3456               	retlw	86
  1655     0096  3486               	retlw	134
  1656     0097  3467               	retlw	103
  1657     0098  34B7               	retlw	183
  1658     0099  3434               	retlw	52
  1659     009A  34E4               	retlw	228
  1660     009B  3405               	retlw	5
  1661     009C  34D5               	retlw	213
  1662     009D  3492               	retlw	146
  1663     009E  3442               	retlw	66
  1664     009F  34A3               	retlw	163
  1665     00A0  3473               	retlw	115
  1666     00A1  34F0               	retlw	240
  1667     00A2  3420               	retlw	32
  1668     00A3  34C1               	retlw	193
  1669     00A4  3411               	retlw	17
  1670     00A5  344F               	retlw	79
  1671     00A6  349F               	retlw	159
  1672     00A7  347E               	retlw	126
  1673     00A8  34AE               	retlw	174
  1674     00A9  342D               	retlw	45
  1675     00AA  34FD               	retlw	253
  1676     00AB  341C               	retlw	28
  1677     00AC  34CC               	retlw	204
  1678     00AD  348B               	retlw	139
  1679     00AE  345B               	retlw	91
  1680     00AF  34BA               	retlw	186
  1681     00B0  346A               	retlw	106
  1682     00B1  34E9               	retlw	233
  1683     00B2  3439               	retlw	57
  1684     00B3  34D8               	retlw	216
  1685     00B4  3408               	retlw	8
  1686     00B5  34C8               	retlw	200
  1687     00B6  3418               	retlw	24
  1688     00B7  34F9               	retlw	249
  1689     00B8  3429               	retlw	41
  1690     00B9  34AA               	retlw	170
  1691     00BA  347A               	retlw	122
  1692     00BB  349B               	retlw	155
  1693     00BC  344B               	retlw	75
  1694     00BD  340C               	retlw	12
  1695     00BE  34DC               	retlw	220
  1696     00BF  343D               	retlw	61
  1697     00C0  34ED               	retlw	237
  1698     00C1  346E               	retlw	110
  1699     00C2  34BE               	retlw	190
  1700     00C3  345F               	retlw	95
  1701     00C4  348F               	retlw	143
  1702     00C5  34D1               	retlw	209
  1703     00C6  3401               	retlw	1
  1704     00C7  34E0               	retlw	224
  1705     00C8  3430               	retlw	48
  1706     00C9  34B3               	retlw	179
  1707     00CA  3463               	retlw	99
  1708     00CB  3482               	retlw	130
  1709     00CC  3452               	retlw	82
  1710     00CD  3415               	retlw	21
  1711     00CE  34C5               	retlw	197
  1712     00CF  3424               	retlw	36
  1713     00D0  34F4               	retlw	244
  1714     00D1  3477               	retlw	119
  1715     00D2  34A7               	retlw	167
  1716     00D3  3446               	retlw	70
  1717     00D4  3496               	retlw	150
  1718     00D5  34FA               	retlw	250
  1719     00D6  342A               	retlw	42
  1720     00D7  34CB               	retlw	203
  1721     00D8  341B               	retlw	27
  1722     00D9  3498               	retlw	152
  1723     00DA  3448               	retlw	72
  1724     00DB  34A9               	retlw	169
  1725     00DC  3479               	retlw	121
  1726     00DD  343E               	retlw	62
  1727     00DE  34EE               	retlw	238
  1728     00DF  340F               	retlw	15
  1729     00E0  34DF               	retlw	223
  1730     00E1  345C               	retlw	92
  1731     00E2  348C               	retlw	140
  1732     00E3  346D               	retlw	109
  1733     00E4  34BD               	retlw	189
  1734     00E5  34E3               	retlw	227
  1735     00E6  3433               	retlw	51
  1736     00E7  34D2               	retlw	210
  1737     00E8  3402               	retlw	2
  1738     00E9  3481               	retlw	129
  1739     00EA  3451               	retlw	81
  1740     00EB  34B0               	retlw	176
  1741     00EC  3460               	retlw	96
  1742     00ED  3427               	retlw	39
  1743     00EE  34F7               	retlw	247
  1744     00EF  3416               	retlw	22
  1745     00F0  34C6               	retlw	198
  1746     00F1  3445               	retlw	69
  1747     00F2  3495               	retlw	149
  1748     00F3  3474               	retlw	116
  1749     00F4  34A4               	retlw	164
  1750     00F5  34AC               	retlw	172
  1751     00F6  347C               	retlw	124
  1752     00F7  349D               	retlw	157
  1753     00F8  344D               	retlw	77
  1754     00F9  34CE               	retlw	206
  1755     00FA  341E               	retlw	30
  1756     00FB  34FF               	retlw	255
  1757     00FC  342F               	retlw	47
  1758     00FD  3468               	retlw	104
  1759     00FE  34B8               	retlw	184
  1760     00FF  3459               	retlw	89
  1761     0100  3489               	retlw	137
  1762     0101  340A               	retlw	10
  1763     0102  34DA               	retlw	218
  1764     0103  343B               	retlw	59
  1765     0104  34EB               	retlw	235
  1766     0105  34B5               	retlw	181
  1767     0106  3465               	retlw	101
  1768     0107  3484               	retlw	132
  1769     0108  3454               	retlw	84
  1770     0109  34D7               	retlw	215
  1771     010A  3407               	retlw	7
  1772     010B  34E6               	retlw	230
  1773     010C  3436               	retlw	54
  1774     010D  3471               	retlw	113
  1775     010E  34A1               	retlw	161
  1776     010F  3440               	retlw	64
  1777     0110  3490               	retlw	144
  1778     0111  3413               	retlw	19
  1779     0112  34C3               	retlw	195
  1780     0113  3422               	retlw	34
  1781     0114  34F2               	retlw	242
  1782     0115  349E               	retlw	158
  1783     0116  344E               	retlw	78
  1784     0117  34AF               	retlw	175
  1785     0118  347F               	retlw	127
  1786     0119  34FC               	retlw	252
  1787     011A  342C               	retlw	44
  1788     011B  34CD               	retlw	205
  1789     011C  341D               	retlw	29
  1790     011D  345A               	retlw	90
  1791     011E  348A               	retlw	138
  1792     011F  346B               	retlw	107
  1793     0120  34BB               	retlw	187
  1794     0121  3438               	retlw	56
  1795     0122  34E8               	retlw	232
  1796     0123  3409               	retlw	9
  1797     0124  34D9               	retlw	217
  1798     0125  3487               	retlw	135
  1799     0126  3457               	retlw	87
  1800     0127  34B6               	retlw	182
  1801     0128  3466               	retlw	102
  1802     0129  34E5               	retlw	229
  1803     012A  3435               	retlw	53
  1804     012B  34D4               	retlw	212
  1805     012C  3404               	retlw	4
  1806     012D  3443               	retlw	67
  1807     012E  3493               	retlw	147
  1808     012F  3472               	retlw	114
  1809     0130  34A2               	retlw	162
  1810     0131  3421               	retlw	33
  1811     0132  34F1               	retlw	241
  1812     0133  3410               	retlw	16
  1813     0134  34C0               	retlw	192
  1814     0135                     __end_of_crc8_table_fixed:
  1815     0015                     _TMR0	set	21
  1816     0018                     _T1CON	set	24
  1817     0011                     _PIR1bits	set	17
  1818     0016                     _TMR1L	set	22
  1819     0017                     _TMR1H	set	23
  1820     0019                     _T1GCON	set	25
  1821     0013                     _PIR3bits	set	19
  1822     000B                     _INTCONbits	set	11
  1823     0095                     _OPTION_REG	set	149
  1824     0095                     _OPTION_REGbits	set	149
  1825     008E                     _TRISC	set	142
  1826     008D                     _TRISB	set	141
  1827     008C                     _TRISA	set	140
  1828     0090                     _TRISE	set	144
  1829     0093                     _PIE3bits	set	147
  1830     0097                     _WDTCON	set	151
  1831     0098                     _OSCTUNE	set	152
  1832     0099                     _OSCCON	set	153
  1833     04D6                     _PLLR	set	1238
  1834     010D                     _LATBbits	set	269
  1835     011D                     _APFCON	set	285
  1836     010E                     _LATC	set	270
  1837     010D                     _LATB	set	269
  1838     010C                     _LATA	set	268
  1839     0110                     _LATE	set	272
  1840     0116                     _BORCON	set	278
  1841     018C                     _ANSELA	set	396
  1842     018D                     _ANSELB	set	397
  1843     020D                     _WPUB	set	525
  1844     0210                     _WPUE	set	528
  1845     0311                     _CCPR3L	set	785
  1846     0312                     _CCPR3H	set	786
  1847     0313                     _CCP3CON	set	787
  1848                           
  1849                           	psect	cinit
  1850     0028                     start_initialization:	
  1851                           ; #config settings
  1852                           
  1853     0028                     __initialization:
  1854                           
  1855                           ; Clear objects allocated to COMMON
  1856     0028  01FD               	clrf	__pbssCOMMON& (0+127)
  1857                           
  1858                           ; Clear objects allocated to BANK0
  1859     0029  3020               	movlw	low __pbssBANK0
  1860     002A  0084               	movwf	4
  1861     002B  3000               	movlw	high __pbssBANK0
  1862     002C  0085               	movwf	5
  1863     002D  3021               	movlw	33
  1864     002E  3183  237E  3180   	fcall	clear_ram0
  1865     0031                     end_of_initialization:	
  1866                           ;End of C runtime variable initialization code
  1867                           
  1868     0031                     __end_of__initialization:
  1869     0031  107E               	bcf	int$flags,0	;clear compiler interrupt flag (level 1)
  1870     0032  0020               	movlb	0
  1871     0033  3182  2AA8         	ljmp	_main	;jump to C main() function
  1872                           
  1873                           	psect	bssCOMMON
  1874     007D                     __pbssCOMMON:
  1875     007D                     _rx_buf:
  1876     007D                     	ds	1
  1877                           
  1878                           	psect	bssBANK0
  1879     0020                     __pbssBANK0:
  1880     0020                     ECCP3_CallBack@last_capture:
  1881     0020                     	ds	2
  1882     0022                     _T10MS_CNT:
  1883     0022                     	ds	2
  1884     0024                     TMR0_ISR@CountCallBack:
  1885     0024                     	ds	2
  1886     0026                     _TMR0_InterruptHandler:
  1887     0026                     	ds	2
  1888     0028                     _timer1ReloadVal:
  1889     0028                     	ds	2
  1890     002A                     ECCP3_CallBack@fEdge_falling_get:
  1891     002A                     	ds	1
  1892     002B                     ECCP3_CallBack@bit_index:
  1893     002B                     	ds	1
  1894     002C                     ECCP3_CallBack@state:
  1895     002C                     	ds	1
  1896     002D                     _fSignalFail:
  1897     002D                     	ds	1
  1898     002E                     _D3:
  1899     002E                     	ds	1
  1900     002F                     _D2:
  1901     002F                     	ds	1
  1902     0030                     _fCRC_OK:
  1903     0030                     	ds	1
  1904     0031                     _crc:
  1905     0031                     	ds	1
  1906     0032                     _step:
  1907     0032                     	ds	1
  1908     0033                     _fFrame_OK:
  1909     0033                     	ds	1
  1910     0034                     _byte_ready:
  1911     0034                     	ds	1
  1912     0035                     _timer0ReloadVal:
  1913     0035                     	ds	1
  1914     0036                     _rx_data:
  1915     0036                     	ds	11
  1916                           
  1917                           	psect	clrtext
  1918     037E                     clear_ram0:	
  1919                           ;	Called with FSR0 containing the base address, and
  1920                           ;	WREG with the size to clear
  1921                           
  1922     037E  0064               	clrwdt	;clear the watchdog before getting into this loop
  1923     037F                     clrloop0:
  1924     037F  0180               	clrf	0	;clear RAM location pointed to by FSR
  1925     0380  3101               	addfsr 0,1
  1926     0381  0B89               	decfsz	9,f	;Have we reached the end of clearing yet?
  1927     0382  2B7F               	goto	clrloop0	;have we reached the end yet?
  1928     0383  3400               	retlw	0	;all done for this memory range, return
  1929                           
  1930                           	psect	cstackCOMMON
  1931     0070                     __pcstackCOMMON:
  1932     0070                     ?_PIN_MANAGER_Initialize:
  1933     0070                     ?_OSCILLATOR_Initialize:	
  1934                           ; 1 bytes @ 0x0
  1935                           
  1936     0070                     ?_WDT_Initialize:	
  1937                           ; 1 bytes @ 0x0
  1938                           
  1939     0070                     ?_ECCP3_Initialize:	
  1940                           ; 1 bytes @ 0x0
  1941                           
  1942     0070                     ?_TMR1_Initialize:	
  1943                           ; 1 bytes @ 0x0
  1944                           
  1945     0070                     ?_TMR0_Initialize:	
  1946                           ; 1 bytes @ 0x0
  1947                           
  1948     0070                     ?_TMR0_ISR:	
  1949                           ; 1 bytes @ 0x0
  1950                           
  1951     0070                     ??_TMR0_ISR:	
  1952                           ; 1 bytes @ 0x0
  1953                           
  1954     0070                     ?_ECCP3_CaptureISR:	
  1955                           ; 1 bytes @ 0x0
  1956                           
  1957     0070                     ?_TMR0_DefaultInterruptHandler:	
  1958                           ; 1 bytes @ 0x0
  1959                           
  1960     0070                     ??_TMR0_DefaultInterruptHandler:	
  1961                           ; 1 bytes @ 0x0
  1962                           
  1963     0070                     ?_TMR0_CallBack:	
  1964                           ; 1 bytes @ 0x0
  1965                           
  1966     0070                     ??_TMR0_CallBack:	
  1967                           ; 1 bytes @ 0x0
  1968                           
  1969     0070                     ?_ECCP3_CallBack:	
  1970                           ; 1 bytes @ 0x0
  1971                           
  1972     0070                     ?_SYSTEM_Initialize:	
  1973                           ; 1 bytes @ 0x0
  1974                           
  1975     0070                     ?_INTERRUPT_InterruptManager:	
  1976                           ; 1 bytes @ 0x0
  1977                           
  1978     0070                     ?_LED_output:	
  1979                           ; 1 bytes @ 0x0
  1980                           
  1981     0070                     ?_check_CRC8:	
  1982                           ; 1 bytes @ 0x0
  1983                           
  1984     0070                     ?_Receiver_FrameData:	
  1985                           ; 1 bytes @ 0x0
  1986                           
  1987     0070                     ?_TMR0_EvenHandler:	
  1988                           ; 1 bytes @ 0x0
  1989                           
  1990     0070                     ??_TMR0_EvenHandler:	
  1991                           ; 1 bytes @ 0x0
  1992                           
  1993     0070                     ?_CheckSignalFail:	
  1994                           ; 1 bytes @ 0x0
  1995                           
  1996     0070                     ?_main:	
  1997                           ; 1 bytes @ 0x0
  1998                           
  1999     0070                     ECCP3_CallBack@capturedValue:	
  2000                           ; 2 bytes @ 0x0
  2001                           
  2002                           
  2003                           ; 2 bytes @ 0x0
  2004     0070                     	ds	2
  2005     0072                     ??_ECCP3_CallBack:
  2006                           
  2007                           ; 1 bytes @ 0x2
  2008     0072                     	ds	2
  2009     0074                     ECCP3_CallBack@pluse_width_LO:
  2010                           
  2011                           ; 2 bytes @ 0x4
  2012     0074                     	ds	2
  2013     0076                     ECCP3_CallBack@width:
  2014                           
  2015                           ; 2 bytes @ 0x6
  2016     0076                     	ds	2
  2017     0078                     ECCP3_CallBack@data_bit:
  2018                           
  2019                           ; 1 bytes @ 0x8
  2020     0078                     	ds	1
  2021     0079                     ECCP3_CallBack@now:
  2022                           
  2023                           ; 2 bytes @ 0x9
  2024     0079                     	ds	2
  2025     007B                     ??_ECCP3_CaptureISR:
  2026     007B                     ECCP3_CaptureISR@module:	
  2027                           ; 1 bytes @ 0xB
  2028                           
  2029                           
  2030                           ; 2 bytes @ 0xB
  2031     007B                     	ds	2
  2032     007D                     ??_INTERRUPT_InterruptManager:
  2033                           
  2034                           	psect	cstackBANK0
  2035     0041                     __pcstackBANK0:	
  2036                           ; 1 bytes @ 0xD
  2037                           
  2038     0041                     ??_PIN_MANAGER_Initialize:
  2039     0041                     ??_OSCILLATOR_Initialize:	
  2040                           ; 1 bytes @ 0x0
  2041                           
  2042     0041                     ??_WDT_Initialize:	
  2043                           ; 1 bytes @ 0x0
  2044                           
  2045     0041                     ??_ECCP3_Initialize:	
  2046                           ; 1 bytes @ 0x0
  2047                           
  2048     0041                     ??_TMR1_Initialize:	
  2049                           ; 1 bytes @ 0x0
  2050                           
  2051     0041                     ?_TMR0_SetInterruptHandler:	
  2052                           ; 1 bytes @ 0x0
  2053                           
  2054     0041                     ?_calculate_crc8:	
  2055                           ; 1 bytes @ 0x0
  2056                           
  2057     0041                     ??_LED_output:	
  2058                           ; 1 bytes @ 0x0
  2059                           
  2060     0041                     ??_Receiver_FrameData:	
  2061                           ; 1 bytes @ 0x0
  2062                           
  2063     0041                     ??_CheckSignalFail:	
  2064                           ; 1 bytes @ 0x0
  2065                           
  2066     0041                     calculate_crc8@length:	
  2067                           ; 1 bytes @ 0x0
  2068                           
  2069     0041                     TMR0_SetInterruptHandler@InterruptHandler:	
  2070                           ; 1 bytes @ 0x0
  2071                           
  2072                           
  2073                           ; 2 bytes @ 0x0
  2074     0041                     	ds	1
  2075     0042                     ??_calculate_crc8:
  2076     0042                     LED_output@i:	
  2077                           ; 1 bytes @ 0x1
  2078                           
  2079                           
  2080                           ; 1 bytes @ 0x1
  2081     0042                     	ds	1
  2082     0043                     ??_TMR0_Initialize:
  2083     0043                     ??_TMR0_SetInterruptHandler:	
  2084                           ; 1 bytes @ 0x2
  2085                           
  2086     0043                     ??_SYSTEM_Initialize:	
  2087                           ; 1 bytes @ 0x2
  2088                           
  2089     0043                     calculate_crc8@data:	
  2090                           ; 1 bytes @ 0x2
  2091                           
  2092                           
  2093                           ; 1 bytes @ 0x2
  2094     0043                     	ds	1
  2095     0044                     calculate_crc8@crc:
  2096                           
  2097                           ; 1 bytes @ 0x3
  2098     0044                     	ds	1
  2099     0045                     calculate_crc8@i:
  2100                           
  2101                           ; 1 bytes @ 0x4
  2102     0045                     	ds	1
  2103     0046                     ??_check_CRC8:
  2104     0046                     ??_main:	
  2105                           ; 1 bytes @ 0x5
  2106                           
  2107                           
  2108                           	psect	maintext
  2109     02A8                     __pmaintext:	
  2110                           ; 1 bytes @ 0x5
  2111 ;;
  2112 ;;Main: autosize = 0, tempsize = 0, incstack = 0, save=0
  2113 ;;
  2114 ;; *************** function _main *****************
  2115 ;; Defined at:
  2116 ;;		line 242 in file "main.c"
  2117 ;; Parameters:    Size  Location     Type
  2118 ;;		None
  2119 ;; Auto vars:     Size  Location     Type
  2120 ;;		None
  2121 ;; Return value:  Size  Location     Type
  2122 ;;                  2  255[None  ] int 
  2123 ;; Registers used:
  2124 ;;		wreg, fsr0l, fsr0h, fsr1l, fsr1h, status,2, status,0, pclath, cstack
  2125 ;; Tracked objects:
  2126 ;;		On entry : B1F/0
  2127 ;;		On exit  : 0/0
  2128 ;;		Unchanged: 0/0
  2129 ;; Data sizes:     COMMON   BANK0   BANK1   BANK2   BANK3   BANK4   BANK5   BANK6
  2130 ;;      Params:         0       0       0       0       0       0       0       0
  2131 ;;      Locals:         0       0       0       0       0       0       0       0
  2132 ;;      Temps:          0       0       0       0       0       0       0       0
  2133 ;;      Totals:         0       0       0       0       0       0       0       0
  2134 ;;Total ram usage:        0 bytes
  2135 ;; Hardware stack levels required when called: 7
  2136 ;; This function calls:
  2137 ;;		_CheckSignalFail
  2138 ;;		_LED_output
  2139 ;;		_Receiver_FrameData
  2140 ;;		_SYSTEM_Initialize
  2141 ;;		_TMR0_SetInterruptHandler
  2142 ;;		_check_CRC8
  2143 ;; This function is called by:
  2144 ;;		Startup code after reset
  2145 ;; This function uses a non-reentrant model
  2146 ;;
  2147                           
  2148     02A8                     _main:	
  2149                           ;psect for function _main
  2150                           
  2151     02A8                     l1498:	
  2152                           ;incstack = 0
  2153                           ; Regs used in _main: [wreg-fsr1h+status,2+status,0+pclath+cstack]
  2154                           
  2155                           
  2156                           ;main.c: 245:   SYSTEM_Initialize();
  2157     02A8  3183  230A  3182   	fcall	_SYSTEM_Initialize
  2158                           
  2159                           ;main.c: 246:   TMR0_SetInterruptHandler(TMR0_EvenHandler);
  2160     02AB  301D               	movlw	low _TMR0_EvenHandler
  2161     02AC  0020               	movlb	0	; select bank0
  2162     02AD  00C1               	movwf	TMR0_SetInterruptHandler@InterruptHandler
  2163     02AE  3003               	movlw	high _TMR0_EvenHandler
  2164     02AF  00C2               	movwf	TMR0_SetInterruptHandler@InterruptHandler+1
  2165     02B0  3183  2384  3182   	fcall	_TMR0_SetInterruptHandler
  2166     02B3                     l1500:
  2167                           
  2168                           ;main.c: 252:   (INTCONbits.GIE = 1);
  2169     02B3  178B               	bsf	11,7	;volatile
  2170     02B4                     l1502:
  2171                           
  2172                           ;main.c: 255:   (INTCONbits.PEIE = 1);
  2173     02B4  170B               	bsf	11,6	;volatile
  2174     02B5                     l1504:
  2175                           
  2176                           ;main.c: 258:   {;main.c: 259:     Receiver_FrameData();
  2177     02B5  3181  21BC  3182   	fcall	_Receiver_FrameData
  2178     02B8                     l1506:
  2179                           
  2180                           ;main.c: 260:     check_CRC8();
  2181     02B8  3182  2264  3182   	fcall	_check_CRC8
  2182     02BB                     l1508:
  2183                           
  2184                           ;main.c: 261:     LED_output();
  2185     02BB  3182  2210  3182   	fcall	_LED_output
  2186     02BE                     l1510:
  2187                           
  2188                           ;main.c: 262:     CheckSignalFail();
  2189     02BE  3183  2330  3182   	fcall	_CheckSignalFail
  2190     02C1  2AB5               	goto	l1504
  2191     02C2  3180  2826         	ljmp	start
  2192     02C4                     __end_of_main:
  2193                           
  2194                           	psect	text1
  2195     0264                     __ptext1:	
  2196 ;; *************** function _check_CRC8 *****************
  2197 ;; Defined at:
  2198 ;;		line 123 in file "main.c"
  2199 ;; Parameters:    Size  Location     Type
  2200 ;;		None
  2201 ;; Auto vars:     Size  Location     Type
  2202 ;;		None
  2203 ;; Return value:  Size  Location     Type
  2204 ;;                  1    wreg      void 
  2205 ;; Registers used:
  2206 ;;		wreg, fsr0l, fsr0h, fsr1l, fsr1h, status,2, status,0, pclath, cstack
  2207 ;; Tracked objects:
  2208 ;;		On entry : 0/0
  2209 ;;		On exit  : 0/0
  2210 ;;		Unchanged: 0/0
  2211 ;; Data sizes:     COMMON   BANK0   BANK1   BANK2   BANK3   BANK4   BANK5   BANK6
  2212 ;;      Params:         0       0       0       0       0       0       0       0
  2213 ;;      Locals:         0       0       0       0       0       0       0       0
  2214 ;;      Temps:          0       0       0       0       0       0       0       0
  2215 ;;      Totals:         0       0       0       0       0       0       0       0
  2216 ;;Total ram usage:        0 bytes
  2217 ;; Hardware stack levels used: 1
  2218 ;; Hardware stack levels required when called: 5
  2219 ;; This function calls:
  2220 ;;		_calculate_crc8
  2221 ;; This function is called by:
  2222 ;;		_main
  2223 ;; This function uses a non-reentrant model
  2224 ;;
  2225                           
  2226     0264                     _check_CRC8:	
  2227                           ;psect for function _check_CRC8
  2228                           
  2229     0264                     l1382:	
  2230                           ;incstack = 0
  2231                           ; Regs used in _check_CRC8: [wreg-fsr1h+status,2+status,0+pclath+cstack]
  2232                           
  2233                           
  2234                           ;main.c: 125:   if(fFrame_OK==0) return;
  2235     0264  0020               	movlb	0	; select bank0
  2236     0265  0833               	movf	_fFrame_OK,w
  2237     0266  1D03               	btfss	3,2
  2238     0267  2A69               	goto	u551
  2239     0268  2A6A               	goto	u550
  2240     0269                     u551:
  2241     0269  2A6B               	goto	l1386
  2242     026A                     u550:
  2243     026A  2A85               	goto	l220
  2244     026B                     l1386:
  2245                           
  2246                           ;main.c: 126:   fFrame_OK=0;
  2247     026B  01B3               	clrf	_fFrame_OK
  2248                           
  2249                           ;main.c: 128:   fCRC_OK = 0;
  2250     026C  01B0               	clrf	_fCRC_OK
  2251     026D                     l1388:
  2252                           
  2253                           ;main.c: 129:   crc = calculate_crc8(rx_data.data, 8);
  2254     026D  3008               	movlw	8
  2255     026E  00C1               	movwf	calculate_crc8@length
  2256     026F  3038               	movlw	(low ((_rx_data| 0+2)))& (0+255)
  2257     0270  3182  2286  3182   	fcall	_calculate_crc8
  2258     0273  0020               	movlb	0	; select bank0
  2259     0274  00B1               	movwf	_crc
  2260     0275                     l1390:
  2261                           
  2262                           ;main.c: 130:   if(rx_data.crc != crc)
  2263     0275  0840               	movf	_rx_data+10,w
  2264     0276  0631               	xorwf	_crc,w
  2265     0277  1903               	skipnz
  2266     0278  2A7A               	goto	u561
  2267     0279  2A7B               	goto	u560
  2268     027A                     u561:
  2269     027A  2A7C               	goto	l221
  2270     027B                     u560:
  2271     027B  2A85               	goto	l220
  2272     027C                     l221:
  2273                           
  2274                           ;main.c: 133:   fCRC_OK = 1;
  2275     027C  01B0               	clrf	_fCRC_OK
  2276     027D  0AB0               	incf	_fCRC_OK,f
  2277     027E                     l1394:
  2278                           
  2279                           ;main.c: 134:   fSignalFail = 0;
  2280     027E  01AD               	clrf	_fSignalFail
  2281                           
  2282                           ;main.c: 135:   T10MS_CNT = 0;
  2283     027F  01A2               	clrf	_T10MS_CNT
  2284     0280  01A3               	clrf	_T10MS_CNT+1
  2285     0281                     l1396:
  2286                           
  2287                           ;main.c: 137:   D2.Byte = rx_data.buf[2];
  2288     0281  0838               	movf	_rx_data+2,w
  2289     0282  00AF               	movwf	_D2
  2290     0283                     l1398:
  2291                           
  2292                           ;main.c: 138:   D3.Byte = rx_data.buf[3];
  2293     0283  0839               	movf	_rx_data+3,w
  2294     0284  00AE               	movwf	_D3
  2295     0285                     l220:
  2296     0285  0008               	return
  2297     0286                     __end_of_check_CRC8:
  2298                           
  2299                           	psect	text2
  2300     0286                     __ptext2:	
  2301 ;; *************** function _calculate_crc8 *****************
  2302 ;; Defined at:
  2303 ;;		line 42 in file "tundra_crc8.c"
  2304 ;; Parameters:    Size  Location     Type
  2305 ;;  data            1    wreg     PTR const unsigned char 
  2306 ;;		 -> rx_data$data(8), rx_data(11), 
  2307 ;;  length          1    0[BANK0 ] unsigned char 
  2308 ;; Auto vars:     Size  Location     Type
  2309 ;;  data            1    2[BANK0 ] PTR const unsigned char 
  2310 ;;		 -> rx_data$data(8), rx_data(11), 
  2311 ;;  i               1    4[BANK0 ] unsigned char 
  2312 ;;  crc             1    3[BANK0 ] unsigned char 
  2313 ;; Return value:  Size  Location     Type
  2314 ;;                  1    wreg      unsigned char 
  2315 ;; Registers used:
  2316 ;;		wreg, fsr0l, fsr0h, fsr1l, fsr1h, status,2, status,0, pclath
  2317 ;; Tracked objects:
  2318 ;;		On entry : 0/0
  2319 ;;		On exit  : 0/0
  2320 ;;		Unchanged: 0/0
  2321 ;; Data sizes:     COMMON   BANK0   BANK1   BANK2   BANK3   BANK4   BANK5   BANK6
  2322 ;;      Params:         0       1       0       0       0       0       0       0
  2323 ;;      Locals:         0       3       0       0       0       0       0       0
  2324 ;;      Temps:          0       1       0       0       0       0       0       0
  2325 ;;      Totals:         0       5       0       0       0       0       0       0
  2326 ;;Total ram usage:        5 bytes
  2327 ;; Hardware stack levels used: 1
  2328 ;; Hardware stack levels required when called: 4
  2329 ;; This function calls:
  2330 ;;		Nothing
  2331 ;; This function is called by:
  2332 ;;		_check_CRC8
  2333 ;; This function uses a non-reentrant model
  2334 ;;
  2335                           
  2336     0286                     _calculate_crc8:	
  2337                           ;psect for function _calculate_crc8
  2338                           
  2339                           
  2340                           ;incstack = 0
  2341                           ; Regs used in _calculate_crc8: [wreg-fsr1h+status,2+status,0+pclath]
  2342                           ;calculate_crc8@data stored from wreg
  2343     0286  0020               	movlb	0	; select bank0
  2344     0287  00C3               	movwf	calculate_crc8@data
  2345     0288                     l1326:
  2346                           
  2347                           ;tundra_crc8.c: 43:   uint8_t crc = 0x00;
  2348     0288  01C4               	clrf	calculate_crc8@crc
  2349                           
  2350                           ;tundra_crc8.c: 45:   for (uint8_t i = 0; i < length; i++) {
  2351     0289  01C5               	clrf	calculate_crc8@i
  2352     028A  2A9F               	goto	l1332
  2353     028B                     l1328:
  2354                           
  2355                           ;tundra_crc8.c: 47:     crc = crc8_table_fixed[crc ^ data[i]];
  2356     028B  0845               	movf	calculate_crc8@i,w
  2357     028C  0743               	addwf	calculate_crc8@data,w
  2358     028D  00C2               	movwf	??_calculate_crc8
  2359     028E  0842               	movf	??_calculate_crc8,w
  2360     028F  0086               	movwf	6
  2361     0290  0187               	clrf	7
  2362     0291  0801               	movf	1,w
  2363     0292  0644               	xorwf	calculate_crc8@crc,w
  2364     0293  3E35               	addlw	low (_crc8_table_fixed| (0+32768))
  2365     0294  0084               	movwf	4
  2366     0295  3080               	movlw	high (_crc8_table_fixed| (0+32768))
  2367     0296  1803               	skipnc
  2368     0297  3E01               	addlw	1
  2369     0298  0085               	movwf	5
  2370     0299  0800               	movf	0,w	;code access
  2371     029A  00C4               	movwf	calculate_crc8@crc
  2372     029B                     l1330:
  2373                           
  2374                           ;tundra_crc8.c: 48:   }
  2375     029B  3001               	movlw	1
  2376     029C  00C2               	movwf	??_calculate_crc8
  2377     029D  0842               	movf	??_calculate_crc8,w
  2378     029E  07C5               	addwf	calculate_crc8@i,f
  2379     029F                     l1332:
  2380     029F  0841               	movf	calculate_crc8@length,w
  2381     02A0  0245               	subwf	calculate_crc8@i,w
  2382     02A1  1C03               	skipc
  2383     02A2  2AA4               	goto	u451
  2384     02A3  2AA5               	goto	u450
  2385     02A4                     u451:
  2386     02A4  2A8B               	goto	l1328
  2387     02A5                     u450:
  2388     02A5                     l1334:
  2389                           
  2390                           ;tundra_crc8.c: 51:   return crc ^ 0x4C;
  2391     02A5  0844               	movf	calculate_crc8@crc,w
  2392     02A6  3A4C               	xorlw	76
  2393     02A7                     l267:
  2394     02A7  0008               	return
  2395     02A8                     __end_of_calculate_crc8:
  2396                           
  2397                           	psect	text3
  2398     030A                     __ptext3:	
  2399 ;; *************** function _SYSTEM_Initialize *****************
  2400 ;; Defined at:
  2401 ;;		line 50 in file "mcc_generated_files/mcc.c"
  2402 ;; Parameters:    Size  Location     Type
  2403 ;;		None
  2404 ;; Auto vars:     Size  Location     Type
  2405 ;;		None
  2406 ;; Return value:  Size  Location     Type
  2407 ;;                  1    wreg      void 
  2408 ;; Registers used:
  2409 ;;		wreg, status,2, status,0, pclath, cstack
  2410 ;; Tracked objects:
  2411 ;;		On entry : 0/0
  2412 ;;		On exit  : 0/0
  2413 ;;		Unchanged: 0/0
  2414 ;; Data sizes:     COMMON   BANK0   BANK1   BANK2   BANK3   BANK4   BANK5   BANK6
  2415 ;;      Params:         0       0       0       0       0       0       0       0
  2416 ;;      Locals:         0       0       0       0       0       0       0       0
  2417 ;;      Temps:          0       0       0       0       0       0       0       0
  2418 ;;      Totals:         0       0       0       0       0       0       0       0
  2419 ;;Total ram usage:        0 bytes
  2420 ;; Hardware stack levels used: 1
  2421 ;; Hardware stack levels required when called: 6
  2422 ;; This function calls:
  2423 ;;		_ECCP3_Initialize
  2424 ;;		_OSCILLATOR_Initialize
  2425 ;;		_PIN_MANAGER_Initialize
  2426 ;;		_TMR0_Initialize
  2427 ;;		_TMR1_Initialize
  2428 ;;		_WDT_Initialize
  2429 ;; This function is called by:
  2430 ;;		_main
  2431 ;; This function uses a non-reentrant model
  2432 ;;
  2433                           
  2434     030A                     _SYSTEM_Initialize:	
  2435                           ;psect for function _SYSTEM_Initialize
  2436                           
  2437     030A                     l1338:	
  2438                           ;incstack = 0
  2439                           ; Regs used in _SYSTEM_Initialize: [wreg+status,2+status,0+pclath+cstack]
  2440                           
  2441                           
  2442                           ;mcc_generated_files/mcc.c: 53:     PIN_MANAGER_Initialize();
  2443     030A  3182  22C4  3183   	fcall	_PIN_MANAGER_Initialize
  2444                           
  2445                           ;mcc_generated_files/mcc.c: 54:     OSCILLATOR_Initialize();
  2446     030D  3183  2368  3183   	fcall	_OSCILLATOR_Initialize
  2447                           
  2448                           ;mcc_generated_files/mcc.c: 55:     WDT_Initialize();
  2449     0310  3183  238A  3183   	fcall	_WDT_Initialize
  2450                           
  2451                           ;mcc_generated_files/mcc.c: 56:     ECCP3_Initialize();
  2452     0313  3183  2374  3183   	fcall	_ECCP3_Initialize
  2453                           
  2454                           ;mcc_generated_files/mcc.c: 57:     TMR1_Initialize();
  2455     0316  3183  234E  3183   	fcall	_TMR1_Initialize
  2456                           
  2457                           ;mcc_generated_files/mcc.c: 58:     TMR0_Initialize();
  2458     0319  3182  22F6  3183   	fcall	_TMR0_Initialize
  2459     031C                     l25:
  2460     031C  0008               	return
  2461     031D                     __end_of_SYSTEM_Initialize:
  2462                           
  2463                           	psect	text4
  2464     038A                     __ptext4:	
  2465 ;; *************** function _WDT_Initialize *****************
  2466 ;; Defined at:
  2467 ;;		line 75 in file "mcc_generated_files/mcc.c"
  2468 ;; Parameters:    Size  Location     Type
  2469 ;;		None
  2470 ;; Auto vars:     Size  Location     Type
  2471 ;;		None
  2472 ;; Return value:  Size  Location     Type
  2473 ;;                  1    wreg      void 
  2474 ;; Registers used:
  2475 ;;		wreg
  2476 ;; Tracked objects:
  2477 ;;		On entry : 0/0
  2478 ;;		On exit  : 0/0
  2479 ;;		Unchanged: 0/0
  2480 ;; Data sizes:     COMMON   BANK0   BANK1   BANK2   BANK3   BANK4   BANK5   BANK6
  2481 ;;      Params:         0       0       0       0       0       0       0       0
  2482 ;;      Locals:         0       0       0       0       0       0       0       0
  2483 ;;      Temps:          0       0       0       0       0       0       0       0
  2484 ;;      Totals:         0       0       0       0       0       0       0       0
  2485 ;;Total ram usage:        0 bytes
  2486 ;; Hardware stack levels used: 1
  2487 ;; Hardware stack levels required when called: 4
  2488 ;; This function calls:
  2489 ;;		Nothing
  2490 ;; This function is called by:
  2491 ;;		_SYSTEM_Initialize
  2492 ;; This function uses a non-reentrant model
  2493 ;;
  2494                           
  2495     038A                     _WDT_Initialize:	
  2496                           ;psect for function _WDT_Initialize
  2497                           
  2498     038A                     l1236:	
  2499                           ;incstack = 0
  2500                           ; Regs used in _WDT_Initialize: [wreg]
  2501                           
  2502                           
  2503                           ;mcc_generated_files/mcc.c: 78:     WDTCON = 0x16;
  2504     038A  3016               	movlw	22
  2505     038B  0021               	movlb	1	; select bank1
  2506     038C  0097               	movwf	23	;volatile
  2507     038D                     l34:
  2508     038D  0008               	return
  2509     038E                     __end_of_WDT_Initialize:
  2510                           
  2511                           	psect	text5
  2512     034E                     __ptext5:	
  2513 ;; *************** function _TMR1_Initialize *****************
  2514 ;; Defined at:
  2515 ;;		line 63 in file "mcc_generated_files/tmr1.c"
  2516 ;; Parameters:    Size  Location     Type
  2517 ;;		None
  2518 ;; Auto vars:     Size  Location     Type
  2519 ;;		None
  2520 ;; Return value:  Size  Location     Type
  2521 ;;                  1    wreg      void 
  2522 ;; Registers used:
  2523 ;;		wreg, status,2
  2524 ;; Tracked objects:
  2525 ;;		On entry : 0/0
  2526 ;;		On exit  : 0/0
  2527 ;;		Unchanged: 0/0
  2528 ;; Data sizes:     COMMON   BANK0   BANK1   BANK2   BANK3   BANK4   BANK5   BANK6
  2529 ;;      Params:         0       0       0       0       0       0       0       0
  2530 ;;      Locals:         0       0       0       0       0       0       0       0
  2531 ;;      Temps:          0       0       0       0       0       0       0       0
  2532 ;;      Totals:         0       0       0       0       0       0       0       0
  2533 ;;Total ram usage:        0 bytes
  2534 ;; Hardware stack levels used: 1
  2535 ;; Hardware stack levels required when called: 4
  2536 ;; This function calls:
  2537 ;;		Nothing
  2538 ;; This function is called by:
  2539 ;;		_SYSTEM_Initialize
  2540 ;; This function uses a non-reentrant model
  2541 ;;
  2542                           
  2543     034E                     _TMR1_Initialize:	
  2544                           ;psect for function _TMR1_Initialize
  2545                           
  2546     034E                     l1248:	
  2547                           ;incstack = 0
  2548                           ; Regs used in _TMR1_Initialize: [wreg+status,2]
  2549                           
  2550                           
  2551                           ;mcc_generated_files/tmr1.c: 68:     T1GCON = 0x10;
  2552     034E  3010               	movlw	16
  2553     034F  0020               	movlb	0	; select bank0
  2554     0350  0099               	movwf	25	;volatile
  2555     0351                     l1250:
  2556                           
  2557                           ;mcc_generated_files/tmr1.c: 71:     TMR1H = 0x00;
  2558     0351  0197               	clrf	23	;volatile
  2559     0352                     l1252:
  2560                           
  2561                           ;mcc_generated_files/tmr1.c: 74:     TMR1L = 0x00;
  2562     0352  0196               	clrf	22	;volatile
  2563     0353                     l1254:
  2564                           
  2565                           ;mcc_generated_files/tmr1.c: 77:     PIR1bits.TMR1IF = 0;
  2566     0353  1011               	bcf	17,0	;volatile
  2567                           
  2568                           ;mcc_generated_files/tmr1.c: 80:     timer1ReloadVal=(uint16_t)((TMR1H << 8) | TMR1L);
  2569     0354  0817               	movf	23,w	;volatile
  2570     0355  00A9               	movwf	_timer1ReloadVal+1	;volatile
  2571     0356  0816               	movf	22,w	;volatile
  2572     0357  00A8               	movwf	_timer1ReloadVal	;volatile
  2573                           
  2574                           ;mcc_generated_files/tmr1.c: 83:     T1CON = 0x01;
  2575     0358  3001               	movlw	1
  2576     0359  0098               	movwf	24	;volatile
  2577     035A                     l70:
  2578     035A  0008               	return
  2579     035B                     __end_of_TMR1_Initialize:
  2580                           
  2581                           	psect	text6
  2582     02F6                     __ptext6:	
  2583 ;; *************** function _TMR0_Initialize *****************
  2584 ;; Defined at:
  2585 ;;		line 64 in file "mcc_generated_files/tmr0.c"
  2586 ;; Parameters:    Size  Location     Type
  2587 ;;		None
  2588 ;; Auto vars:     Size  Location     Type
  2589 ;;		None
  2590 ;; Return value:  Size  Location     Type
  2591 ;;                  1    wreg      void 
  2592 ;; Registers used:
  2593 ;;		wreg, status,2, status,0, pclath, cstack
  2594 ;; Tracked objects:
  2595 ;;		On entry : 0/0
  2596 ;;		On exit  : 0/0
  2597 ;;		Unchanged: 0/0
  2598 ;; Data sizes:     COMMON   BANK0   BANK1   BANK2   BANK3   BANK4   BANK5   BANK6
  2599 ;;      Params:         0       0       0       0       0       0       0       0
  2600 ;;      Locals:         0       0       0       0       0       0       0       0
  2601 ;;      Temps:          0       0       0       0       0       0       0       0
  2602 ;;      Totals:         0       0       0       0       0       0       0       0
  2603 ;;Total ram usage:        0 bytes
  2604 ;; Hardware stack levels used: 1
  2605 ;; Hardware stack levels required when called: 5
  2606 ;; This function calls:
  2607 ;;		_TMR0_SetInterruptHandler
  2608 ;; This function is called by:
  2609 ;;		_SYSTEM_Initialize
  2610 ;; This function uses a non-reentrant model
  2611 ;;
  2612                           
  2613     02F6                     _TMR0_Initialize:	
  2614                           ;psect for function _TMR0_Initialize
  2615                           
  2616     02F6                     l1256:	
  2617                           ;incstack = 0
  2618                           ; Regs used in _TMR0_Initialize: [wreg+status,2+status,0+pclath+cstack]
  2619                           
  2620                           
  2621                           ;mcc_generated_files/tmr0.c: 69:     OPTION_REG = (uint8_t)((OPTION_REG & 0xC0) | (0xD4 
      +                          & 0x3F));
  2622     02F6  0021               	movlb	1	; select bank1
  2623     02F7  0815               	movf	21,w	;volatile
  2624     02F8  39C0               	andlw	192
  2625     02F9  3814               	iorlw	20
  2626     02FA  0095               	movwf	21	;volatile
  2627     02FB                     l1258:
  2628                           
  2629                           ;mcc_generated_files/tmr0.c: 72:     TMR0 = 0x06;
  2630     02FB  3006               	movlw	6
  2631     02FC  0020               	movlb	0	; select bank0
  2632     02FD  0095               	movwf	21	;volatile
  2633     02FE                     l1260:
  2634                           
  2635                           ;mcc_generated_files/tmr0.c: 75:     timer0ReloadVal= 6;
  2636     02FE  3006               	movlw	6
  2637     02FF  00B5               	movwf	_timer0ReloadVal	;volatile
  2638     0300                     l1262:
  2639                           
  2640                           ;mcc_generated_files/tmr0.c: 78:     INTCONbits.TMR0IF = 0;
  2641     0300  110B               	bcf	11,2	;volatile
  2642     0301                     l1264:
  2643                           
  2644                           ;mcc_generated_files/tmr0.c: 81:     INTCONbits.TMR0IE = 1;
  2645     0301  168B               	bsf	11,5	;volatile
  2646     0302                     l1266:
  2647                           
  2648                           ;mcc_generated_files/tmr0.c: 84:     TMR0_SetInterruptHandler(TMR0_DefaultInterruptHandl
      +                          er);
  2649     0302  308E               	movlw	low _TMR0_DefaultInterruptHandler
  2650     0303  00C1               	movwf	TMR0_SetInterruptHandler@InterruptHandler
  2651     0304  3003               	movlw	high _TMR0_DefaultInterruptHandler
  2652     0305  00C2               	movwf	TMR0_SetInterruptHandler@InterruptHandler+1
  2653     0306  3183  2384  3182   	fcall	_TMR0_SetInterruptHandler
  2654     0309                     l123:
  2655     0309  0008               	return
  2656     030A                     __end_of_TMR0_Initialize:
  2657                           
  2658                           	psect	text7
  2659     0384                     __ptext7:	
  2660 ;; *************** function _TMR0_SetInterruptHandler *****************
  2661 ;; Defined at:
  2662 ;;		line 140 in file "mcc_generated_files/tmr0.c"
  2663 ;; Parameters:    Size  Location     Type
  2664 ;;  InterruptHan    2    0[BANK0 ] PTR FTN()void 
  2665 ;;		 -> TMR0_EvenHandler(1), TMR0_DefaultInterruptHandler(1), 
  2666 ;; Auto vars:     Size  Location     Type
  2667 ;;		None
  2668 ;; Return value:  Size  Location     Type
  2669 ;;                  1    wreg      void 
  2670 ;; Registers used:
  2671 ;;		wreg
  2672 ;; Tracked objects:
  2673 ;;		On entry : 0/0
  2674 ;;		On exit  : 0/0
  2675 ;;		Unchanged: 0/0
  2676 ;; Data sizes:     COMMON   BANK0   BANK1   BANK2   BANK3   BANK4   BANK5   BANK6
  2677 ;;      Params:         0       2       0       0       0       0       0       0
  2678 ;;      Locals:         0       0       0       0       0       0       0       0
  2679 ;;      Temps:          0       0       0       0       0       0       0       0
  2680 ;;      Totals:         0       2       0       0       0       0       0       0
  2681 ;;Total ram usage:        2 bytes
  2682 ;; Hardware stack levels used: 1
  2683 ;; Hardware stack levels required when called: 4
  2684 ;; This function calls:
  2685 ;;		Nothing
  2686 ;; This function is called by:
  2687 ;;		_TMR0_Initialize
  2688 ;;		_main
  2689 ;; This function uses a non-reentrant model
  2690 ;;
  2691                           
  2692     0384                     _TMR0_SetInterruptHandler:	
  2693                           ;psect for function _TMR0_SetInterruptHandler
  2694                           
  2695     0384                     l1202:	
  2696                           ;incstack = 0
  2697                           ; Regs used in _TMR0_SetInterruptHandler: [wreg]
  2698                           
  2699                           
  2700                           ;mcc_generated_files/tmr0.c: 141:     TMR0_InterruptHandler = InterruptHandler;
  2701     0384  0020               	movlb	0	; select bank0
  2702     0385  0842               	movf	TMR0_SetInterruptHandler@InterruptHandler+1,w
  2703     0386  00A7               	movwf	_TMR0_InterruptHandler+1
  2704     0387  0841               	movf	TMR0_SetInterruptHandler@InterruptHandler,w
  2705     0388  00A6               	movwf	_TMR0_InterruptHandler
  2706     0389                     l145:
  2707     0389  0008               	return
  2708     038A                     __end_of_TMR0_SetInterruptHandler:
  2709                           
  2710                           	psect	text8
  2711     02C4                     __ptext8:	
  2712 ;; *************** function _PIN_MANAGER_Initialize *****************
  2713 ;; Defined at:
  2714 ;;		line 55 in file "mcc_generated_files/pin_manager.c"
  2715 ;; Parameters:    Size  Location     Type
  2716 ;;		None
  2717 ;; Auto vars:     Size  Location     Type
  2718 ;;		None
  2719 ;; Return value:  Size  Location     Type
  2720 ;;                  1    wreg      void 
  2721 ;; Registers used:
  2722 ;;		wreg, status,2
  2723 ;; Tracked objects:
  2724 ;;		On entry : 0/0
  2725 ;;		On exit  : 0/0
  2726 ;;		Unchanged: 0/0
  2727 ;; Data sizes:     COMMON   BANK0   BANK1   BANK2   BANK3   BANK4   BANK5   BANK6
  2728 ;;      Params:         0       0       0       0       0       0       0       0
  2729 ;;      Locals:         0       0       0       0       0       0       0       0
  2730 ;;      Temps:          0       0       0       0       0       0       0       0
  2731 ;;      Totals:         0       0       0       0       0       0       0       0
  2732 ;;Total ram usage:        0 bytes
  2733 ;; Hardware stack levels used: 1
  2734 ;; Hardware stack levels required when called: 4
  2735 ;; This function calls:
  2736 ;;		Nothing
  2737 ;; This function is called by:
  2738 ;;		_SYSTEM_Initialize
  2739 ;; This function uses a non-reentrant model
  2740 ;;
  2741                           
  2742     02C4                     _PIN_MANAGER_Initialize:	
  2743                           ;psect for function _PIN_MANAGER_Initialize
  2744                           
  2745     02C4                     l1210:	
  2746                           ;incstack = 0
  2747                           ; Regs used in _PIN_MANAGER_Initialize: [wreg+status,2]
  2748                           
  2749                           
  2750                           ;mcc_generated_files/pin_manager.c: 60:     LATE = 0x00;
  2751     02C4  0022               	movlb	2	; select bank2
  2752     02C5  0190               	clrf	16	;volatile
  2753                           
  2754                           ;mcc_generated_files/pin_manager.c: 61:     LATA = 0x00;
  2755     02C6  018C               	clrf	12	;volatile
  2756                           
  2757                           ;mcc_generated_files/pin_manager.c: 62:     LATB = 0x00;
  2758     02C7  018D               	clrf	13	;volatile
  2759                           
  2760                           ;mcc_generated_files/pin_manager.c: 63:     LATC = 0x00;
  2761     02C8  018E               	clrf	14	;volatile
  2762     02C9                     l1212:
  2763                           
  2764                           ;mcc_generated_files/pin_manager.c: 68:     TRISE = 0x08;
  2765     02C9  3008               	movlw	8
  2766     02CA  0021               	movlb	1	; select bank1
  2767     02CB  0090               	movwf	16	;volatile
  2768     02CC                     l1214:
  2769                           
  2770                           ;mcc_generated_files/pin_manager.c: 69:     TRISA = 0xF6;
  2771     02CC  30F6               	movlw	246
  2772     02CD  008C               	movwf	12	;volatile
  2773     02CE                     l1216:
  2774                           
  2775                           ;mcc_generated_files/pin_manager.c: 70:     TRISB = 0x80;
  2776     02CE  3080               	movlw	128
  2777     02CF  008D               	movwf	13	;volatile
  2778     02D0                     l1218:
  2779                           
  2780                           ;mcc_generated_files/pin_manager.c: 71:     TRISC = 0xFD;
  2781     02D0  30FD               	movlw	253
  2782     02D1  008E               	movwf	14	;volatile
  2783                           
  2784                           ;mcc_generated_files/pin_manager.c: 76:     ANSELB = 0x00;
  2785     02D2  0023               	movlb	3	; select bank3
  2786     02D3  018D               	clrf	13	;volatile
  2787     02D4                     l1220:
  2788                           
  2789                           ;mcc_generated_files/pin_manager.c: 77:     ANSELA = 0x36;
  2790     02D4  3036               	movlw	54
  2791     02D5  008C               	movwf	12	;volatile
  2792     02D6                     l1222:
  2793                           
  2794                           ;mcc_generated_files/pin_manager.c: 82:     WPUE = 0x00;
  2795     02D6  0024               	movlb	4	; select bank4
  2796     02D7  0190               	clrf	16	;volatile
  2797     02D8                     l1224:
  2798                           
  2799                           ;mcc_generated_files/pin_manager.c: 83:     WPUB = 0x00;
  2800     02D8  018D               	clrf	13	;volatile
  2801     02D9                     l1226:
  2802                           
  2803                           ;mcc_generated_files/pin_manager.c: 84:     OPTION_REGbits.nWPUEN = 0;
  2804     02D9  0021               	movlb	1	; select bank1
  2805     02DA  1395               	bcf	21,7	;volatile
  2806     02DB                     l1228:
  2807                           
  2808                           ;mcc_generated_files/pin_manager.c: 90:     APFCON = 0x00;
  2809     02DB  0022               	movlb	2	; select bank2
  2810     02DC  019D               	clrf	29	;volatile
  2811     02DD                     l101:
  2812     02DD  0008               	return
  2813     02DE                     __end_of_PIN_MANAGER_Initialize:
  2814                           
  2815                           	psect	text9
  2816     0368                     __ptext9:	
  2817 ;; *************** function _OSCILLATOR_Initialize *****************
  2818 ;; Defined at:
  2819 ;;		line 61 in file "mcc_generated_files/mcc.c"
  2820 ;; Parameters:    Size  Location     Type
  2821 ;;		None
  2822 ;; Auto vars:     Size  Location     Type
  2823 ;;		None
  2824 ;; Return value:  Size  Location     Type
  2825 ;;                  1    wreg      void 
  2826 ;; Registers used:
  2827 ;;		wreg, status,2
  2828 ;; Tracked objects:
  2829 ;;		On entry : 0/0
  2830 ;;		On exit  : 0/0
  2831 ;;		Unchanged: 0/0
  2832 ;; Data sizes:     COMMON   BANK0   BANK1   BANK2   BANK3   BANK4   BANK5   BANK6
  2833 ;;      Params:         0       0       0       0       0       0       0       0
  2834 ;;      Locals:         0       0       0       0       0       0       0       0
  2835 ;;      Temps:          0       0       0       0       0       0       0       0
  2836 ;;      Totals:         0       0       0       0       0       0       0       0
  2837 ;;Total ram usage:        0 bytes
  2838 ;; Hardware stack levels used: 1
  2839 ;; Hardware stack levels required when called: 4
  2840 ;; This function calls:
  2841 ;;		Nothing
  2842 ;; This function is called by:
  2843 ;;		_SYSTEM_Initialize
  2844 ;; This function uses a non-reentrant model
  2845 ;;
  2846                           
  2847     0368                     _OSCILLATOR_Initialize:	
  2848                           ;psect for function _OSCILLATOR_Initialize
  2849                           
  2850     0368                     l1230:	
  2851                           ;incstack = 0
  2852                           ; Regs used in _OSCILLATOR_Initialize: [wreg+status,2]
  2853                           
  2854                           
  2855                           ;mcc_generated_files/mcc.c: 64:     OSCCON = 0x70;
  2856     0368  3070               	movlw	112
  2857     0369  0021               	movlb	1	; select bank1
  2858     036A  0099               	movwf	25	;volatile
  2859     036B                     l1232:
  2860                           
  2861                           ;mcc_generated_files/mcc.c: 66:     OSCTUNE = 0x00;
  2862     036B  0198               	clrf	24	;volatile
  2863     036C                     l1234:
  2864                           
  2865                           ;mcc_generated_files/mcc.c: 68:     BORCON = 0x00;
  2866     036C  0022               	movlb	2	; select bank2
  2867     036D  0196               	clrf	22	;volatile
  2868     036E                     l28:	
  2869                           ;mcc_generated_files/mcc.c: 71:     {;mcc_generated_files/mcc.c: 72:     }
  2870                           
  2871                           
  2872                           ;mcc_generated_files/mcc.c: 70:     while(PLLR == 0)
  2873     036E  0021               	movlb	1	; select bank1
  2874     036F  1F1A               	btfss	26,6	;volatile
  2875     0370  2B72               	goto	u331
  2876     0371  2B73               	goto	u330
  2877     0372                     u331:
  2878     0372  2B6E               	goto	l28
  2879     0373                     u330:
  2880     0373                     l31:
  2881     0373  0008               	return
  2882     0374                     __end_of_OSCILLATOR_Initialize:
  2883                           
  2884                           	psect	text10
  2885     0374                     __ptext10:	
  2886 ;; *************** function _ECCP3_Initialize *****************
  2887 ;; Defined at:
  2888 ;;		line 59 in file "mcc_generated_files/eccp3.c"
  2889 ;; Parameters:    Size  Location     Type
  2890 ;;		None
  2891 ;; Auto vars:     Size  Location     Type
  2892 ;;		None
  2893 ;; Return value:  Size  Location     Type
  2894 ;;                  1    wreg      void 
  2895 ;; Registers used:
  2896 ;;		wreg, status,2
  2897 ;; Tracked objects:
  2898 ;;		On entry : 0/0
  2899 ;;		On exit  : 0/0
  2900 ;;		Unchanged: 0/0
  2901 ;; Data sizes:     COMMON   BANK0   BANK1   BANK2   BANK3   BANK4   BANK5   BANK6
  2902 ;;      Params:         0       0       0       0       0       0       0       0
  2903 ;;      Locals:         0       0       0       0       0       0       0       0
  2904 ;;      Temps:          0       0       0       0       0       0       0       0
  2905 ;;      Totals:         0       0       0       0       0       0       0       0
  2906 ;;Total ram usage:        0 bytes
  2907 ;; Hardware stack levels used: 1
  2908 ;; Hardware stack levels required when called: 4
  2909 ;; This function calls:
  2910 ;;		Nothing
  2911 ;; This function is called by:
  2912 ;;		_SYSTEM_Initialize
  2913 ;; This function uses a non-reentrant model
  2914 ;;
  2915                           
  2916     0374                     _ECCP3_Initialize:	
  2917                           ;psect for function _ECCP3_Initialize
  2918                           
  2919     0374                     l1238:	
  2920                           ;incstack = 0
  2921                           ; Regs used in _ECCP3_Initialize: [wreg+status,2]
  2922                           
  2923                           
  2924                           ;mcc_generated_files/eccp3.c: 64:  CCP3CON = 0x05;
  2925     0374  3005               	movlw	5
  2926     0375  0026               	movlb	6	; select bank6
  2927     0376  0093               	movwf	19	;volatile
  2928     0377                     l1240:
  2929                           
  2930                           ;mcc_generated_files/eccp3.c: 67:  CCPR3H = 0x00;
  2931     0377  0192               	clrf	18	;volatile
  2932     0378                     l1242:
  2933                           
  2934                           ;mcc_generated_files/eccp3.c: 70:  CCPR3L = 0x00;
  2935     0378  0191               	clrf	17	;volatile
  2936     0379                     l1244:
  2937                           
  2938                           ;mcc_generated_files/eccp3.c: 73:     PIR3bits.CCP3IF = 0;
  2939     0379  0020               	movlb	0	; select bank0
  2940     037A  1213               	bcf	19,4	;volatile
  2941     037B                     l1246:
  2942                           
  2943                           ;mcc_generated_files/eccp3.c: 76:     PIE3bits.CCP3IE = 1;
  2944     037B  0021               	movlb	1	; select bank1
  2945     037C  1613               	bsf	19,4	;volatile
  2946     037D                     l163:
  2947     037D  0008               	return
  2948     037E                     __end_of_ECCP3_Initialize:
  2949                           
  2950                           	psect	text11
  2951     01BC                     __ptext11:	
  2952 ;; *************** function _Receiver_FrameData *****************
  2953 ;; Defined at:
  2954 ;;		line 141 in file "main.c"
  2955 ;; Parameters:    Size  Location     Type
  2956 ;;		None
  2957 ;; Auto vars:     Size  Location     Type
  2958 ;;		None
  2959 ;; Return value:  Size  Location     Type
  2960 ;;                  1    wreg      void 
  2961 ;; Registers used:
  2962 ;;		wreg, fsr0l, fsr0h, fsr1l, fsr1h, status,2, status,0
  2963 ;; Tracked objects:
  2964 ;;		On entry : 0/0
  2965 ;;		On exit  : 0/0
  2966 ;;		Unchanged: 0/0
  2967 ;; Data sizes:     COMMON   BANK0   BANK1   BANK2   BANK3   BANK4   BANK5   BANK6
  2968 ;;      Params:         0       0       0       0       0       0       0       0
  2969 ;;      Locals:         0       0       0       0       0       0       0       0
  2970 ;;      Temps:          0       1       0       0       0       0       0       0
  2971 ;;      Totals:         0       1       0       0       0       0       0       0
  2972 ;;Total ram usage:        1 bytes
  2973 ;; Hardware stack levels used: 1
  2974 ;; Hardware stack levels required when called: 4
  2975 ;; This function calls:
  2976 ;;		Nothing
  2977 ;; This function is called by:
  2978 ;;		_main
  2979 ;; This function uses a non-reentrant model
  2980 ;;
  2981                           
  2982     01BC                     _Receiver_FrameData:	
  2983                           ;psect for function _Receiver_FrameData
  2984                           
  2985     01BC                     l1400:	
  2986                           ;incstack = 0
  2987                           ; Regs used in _Receiver_FrameData: [wreg-fsr1h+status,2+status,0]
  2988                           
  2989                           
  2990                           ;main.c: 143:   if (byte_ready == 0) return;
  2991     01BC  0020               	movlb	0	; select bank0
  2992     01BD  0834               	movf	_byte_ready,w
  2993     01BE  1D03               	btfss	3,2
  2994     01BF  29C1               	goto	u571
  2995     01C0  29C2               	goto	u570
  2996     01C1                     u571:
  2997     01C1  29C3               	goto	l1404
  2998     01C2                     u570:
  2999     01C2  2A0F               	goto	l225
  3000     01C3                     l1404:
  3001                           
  3002                           ;main.c: 144:     byte_ready = 0;
  3003     01C3  01B4               	clrf	_byte_ready
  3004                           
  3005                           ;main.c: 146:     switch (step)
  3006     01C4  29EC               	goto	l1466
  3007     01C5                     l1406:
  3008                           
  3009                           ;main.c: 149:       if (rx_buf == 0xC8)
  3010     01C5  30C8               	movlw	200
  3011     01C6  067D               	xorwf	_rx_buf,w
  3012     01C7  1D03               	btfss	3,2
  3013     01C8  29CA               	goto	u581
  3014     01C9  29CB               	goto	u580
  3015     01CA                     u581:
  3016     01CA  29D6               	goto	l1412
  3017     01CB                     u580:
  3018     01CB                     l1408:
  3019                           
  3020                           ;main.c: 150:       {;main.c: 152:         rx_data.buf[step++] = rx_buf;
  3021     01CB  0832               	movf	_step,w
  3022     01CC  3E36               	addlw	(low (_rx_data| 0))& (0+255)
  3023     01CD  0086               	movwf	6
  3024     01CE  0187               	clrf	7
  3025     01CF  087D               	movf	_rx_buf,w
  3026     01D0  0081               	movwf	1
  3027     01D1                     l1410:
  3028     01D1  3001               	movlw	1
  3029     01D2  00C1               	movwf	??_Receiver_FrameData
  3030     01D3  0841               	movf	??_Receiver_FrameData,w
  3031     01D4  07B2               	addwf	_step,f
  3032                           
  3033                           ;main.c: 153:       }
  3034     01D5  2A0F               	goto	l225
  3035     01D6                     l1412:
  3036                           
  3037                           ;main.c: 155:       {;main.c: 156:         step = 0;
  3038     01D6  01B2               	clrf	_step
  3039     01D7  2A0F               	goto	l225
  3040     01D8                     l1414:
  3041                           
  3042                           ;main.c: 160:       if (rx_buf == 0x8B)
  3043     01D8  308B               	movlw	139
  3044     01D9  067D               	xorwf	_rx_buf,w
  3045     01DA  1D03               	btfss	3,2
  3046     01DB  29DD               	goto	u591
  3047     01DC  29DE               	goto	u590
  3048     01DD                     u591:
  3049     01DD  29D6               	goto	l1412
  3050     01DE                     u590:
  3051     01DE  29CB               	goto	l1408
  3052     01DF                     l1454:
  3053                           
  3054                           ;main.c: 203:       rx_data.buf[step++] = rx_buf;
  3055     01DF  0832               	movf	_step,w
  3056     01E0  3E36               	addlw	(low (_rx_data| 0))& (0+255)
  3057     01E1  0086               	movwf	6
  3058     01E2  0187               	clrf	7
  3059     01E3  087D               	movf	_rx_buf,w
  3060     01E4  0081               	movwf	1
  3061     01E5                     l1456:
  3062     01E5  3001               	movlw	1
  3063     01E6  00C1               	movwf	??_Receiver_FrameData
  3064     01E7  0841               	movf	??_Receiver_FrameData,w
  3065     01E8  07B2               	addwf	_step,f
  3066     01E9                     l1458:
  3067                           
  3068                           ;main.c: 204:       fFrame_OK = 1;
  3069     01E9  01B3               	clrf	_fFrame_OK
  3070     01EA  0AB3               	incf	_fFrame_OK,f
  3071     01EB  29D6               	goto	l1412
  3072     01EC                     l1466:
  3073     01EC  0832               	movf	_step,w
  3074                           
  3075                           ; Switch size 1, requested type "simple"
  3076                           ; Number of cases is 11, Range of values is 0 to 10
  3077                           ; switch strategies available:
  3078                           ; Name         Instructions Cycles
  3079                           ; direct_byte           28     6 (fixed)
  3080                           ; simple_byte           34    18 (average)
  3081                           ; jumptable            260     6 (fixed)
  3082                           ;	Chosen strategy is simple_byte
  3083     01ED  3A00               	xorlw	0	; case 0
  3084     01EE  1903               	skipnz
  3085     01EF  29C5               	goto	l1406
  3086     01F0  3A01               	xorlw	1	; case 1
  3087     01F1  1903               	skipnz
  3088     01F2  29D8               	goto	l1414
  3089     01F3  3A03               	xorlw	3	; case 2
  3090     01F4  1903               	skipnz
  3091     01F5  29CB               	goto	l1408
  3092     01F6  3A01               	xorlw	1	; case 3
  3093     01F7  1903               	skipnz
  3094     01F8  29CB               	goto	l1408
  3095     01F9  3A07               	xorlw	7	; case 4
  3096     01FA  1903               	skipnz
  3097     01FB  29CB               	goto	l1408
  3098     01FC  3A01               	xorlw	1	; case 5
  3099     01FD  1903               	skipnz
  3100     01FE  29CB               	goto	l1408
  3101     01FF  3A03               	xorlw	3	; case 6
  3102     0200  1903               	skipnz
  3103     0201  29CB               	goto	l1408
  3104     0202  3A01               	xorlw	1	; case 7
  3105     0203  1903               	skipnz
  3106     0204  29CB               	goto	l1408
  3107     0205  3A0F               	xorlw	15	; case 8
  3108     0206  1903               	skipnz
  3109     0207  29CB               	goto	l1408
  3110     0208  3A01               	xorlw	1	; case 9
  3111     0209  1903               	skipnz
  3112     020A  29CB               	goto	l1408
  3113     020B  3A03               	xorlw	3	; case 10
  3114     020C  1903               	skipnz
  3115     020D  29DF               	goto	l1454
  3116     020E  29D6               	goto	l1412
  3117     020F                     l225:
  3118     020F  0008               	return
  3119     0210                     __end_of_Receiver_FrameData:
  3120                           
  3121                           	psect	text12
  3122     0210                     __ptext12:	
  3123 ;; *************** function _LED_output *****************
  3124 ;; Defined at:
  3125 ;;		line 54 in file "main.c"
  3126 ;; Parameters:    Size  Location     Type
  3127 ;;		None
  3128 ;; Auto vars:     Size  Location     Type
  3129 ;;  i               1    1[BANK0 ] unsigned char 
  3130 ;; Return value:  Size  Location     Type
  3131 ;;                  1    wreg      void 
  3132 ;; Registers used:
  3133 ;;		wreg, fsr1l, fsr1h, status,2, status,0
  3134 ;; Tracked objects:
  3135 ;;		On entry : 0/0
  3136 ;;		On exit  : 0/0
  3137 ;;		Unchanged: 0/0
  3138 ;; Data sizes:     COMMON   BANK0   BANK1   BANK2   BANK3   BANK4   BANK5   BANK6
  3139 ;;      Params:         0       0       0       0       0       0       0       0
  3140 ;;      Locals:         0       1       0       0       0       0       0       0
  3141 ;;      Temps:          0       1       0       0       0       0       0       0
  3142 ;;      Totals:         0       2       0       0       0       0       0       0
  3143 ;;Total ram usage:        2 bytes
  3144 ;; Hardware stack levels used: 1
  3145 ;; Hardware stack levels required when called: 4
  3146 ;; This function calls:
  3147 ;;		Nothing
  3148 ;; This function is called by:
  3149 ;;		_main
  3150 ;; This function uses a non-reentrant model
  3151 ;;
  3152                           
  3153     0210                     _LED_output:	
  3154                           ;psect for function _LED_output
  3155                           
  3156     0210                     l1354:	
  3157                           ;incstack = 0
  3158                           ; Regs used in _LED_output: [wreg+fsr1l+fsr1h+status,2+status,0]
  3159                           
  3160                           
  3161                           ;main.c: 58:   if (fCRC_OK==0)
  3162     0210  0020               	movlb	0	; select bank0
  3163     0211  0830               	movf	_fCRC_OK,w
  3164     0212  1D03               	btfss	3,2
  3165     0213  2A15               	goto	u471
  3166     0214  2A16               	goto	u470
  3167     0215                     u471:
  3168     0215  2A17               	goto	l201
  3169     0216                     u470:
  3170     0216  2A63               	goto	l202
  3171     0217                     l201:
  3172                           
  3173                           ;main.c: 62:   if (D2.RunLight == 1)
  3174     0217  1D2F               	btfss	_D2,2
  3175     0218  2A1A               	goto	u481
  3176     0219  2A1B               	goto	u480
  3177     021A                     u481:
  3178     021A  2A1E               	goto	l203
  3179     021B                     u480:
  3180     021B                     l1358:
  3181                           
  3182                           ;main.c: 63:   {;main.c: 64:     LATBbits.LATB5 = 1;
  3183     021B  0022               	movlb	2	; select bank2
  3184     021C  168D               	bsf	13,5	;volatile
  3185                           
  3186                           ;main.c: 65:   }
  3187     021D  2A20               	goto	l204
  3188     021E                     l203:	
  3189                           ;main.c: 66:   else
  3190                           
  3191                           
  3192                           ;main.c: 67:   {;main.c: 68:     LATBbits.LATB5 = 0;
  3193     021E  0022               	movlb	2	; select bank2
  3194     021F  128D               	bcf	13,5	;volatile
  3195     0220                     l204:	
  3196                           ;main.c: 69:   }
  3197                           
  3198                           
  3199                           ;main.c: 71:   if (D2.DRL == 1)
  3200     0220  0020               	movlb	0	; select bank0
  3201     0221  1DAF               	btfss	_D2,3
  3202     0222  2A24               	goto	u491
  3203     0223  2A25               	goto	u490
  3204     0224                     u491:
  3205     0224  2A28               	goto	l205
  3206     0225                     u490:
  3207     0225                     l1360:
  3208                           
  3209                           ;main.c: 72:   {;main.c: 73:     LATBbits.LATB4 = 1;
  3210     0225  0022               	movlb	2	; select bank2
  3211     0226  160D               	bsf	13,4	;volatile
  3212                           
  3213                           ;main.c: 74:   }
  3214     0227  2A2A               	goto	l206
  3215     0228                     l205:	
  3216                           ;main.c: 75:   else
  3217                           
  3218                           
  3219                           ;main.c: 76:   {;main.c: 77:     LATBbits.LATB4 = 0;
  3220     0228  0022               	movlb	2	; select bank2
  3221     0229  120D               	bcf	13,4	;volatile
  3222     022A                     l206:	
  3223                           ;main.c: 78:   }
  3224                           
  3225                           
  3226                           ;main.c: 80:   if (D2.LoBeam == 1)
  3227     022A  0020               	movlb	0	; select bank0
  3228     022B  1E2F               	btfss	_D2,4
  3229     022C  2A2E               	goto	u501
  3230     022D  2A2F               	goto	u500
  3231     022E                     u501:
  3232     022E  2A32               	goto	l207
  3233     022F                     u500:
  3234     022F                     l1362:
  3235                           
  3236                           ;main.c: 81:   {;main.c: 82:     LATBbits.LATB3 = 1;
  3237     022F  0022               	movlb	2	; select bank2
  3238     0230  158D               	bsf	13,3	;volatile
  3239                           
  3240                           ;main.c: 83:   }
  3241     0231  2A34               	goto	l208
  3242     0232                     l207:	
  3243                           ;main.c: 84:   else
  3244                           
  3245                           
  3246                           ;main.c: 85:   {;main.c: 86:     LATBbits.LATB3 = 0;
  3247     0232  0022               	movlb	2	; select bank2
  3248     0233  118D               	bcf	13,3	;volatile
  3249     0234                     l208:	
  3250                           ;main.c: 87:   }
  3251                           
  3252                           
  3253                           ;main.c: 89:   if (D2.HiBeam == 1)
  3254     0234  0020               	movlb	0	; select bank0
  3255     0235  1EAF               	btfss	_D2,5
  3256     0236  2A38               	goto	u511
  3257     0237  2A39               	goto	u510
  3258     0238                     u511:
  3259     0238  2A3C               	goto	l209
  3260     0239                     u510:
  3261     0239                     l1364:
  3262                           
  3263                           ;main.c: 90:   {;main.c: 91:     LATBbits.LATB2 = 1;
  3264     0239  0022               	movlb	2	; select bank2
  3265     023A  150D               	bsf	13,2	;volatile
  3266                           
  3267                           ;main.c: 92:   }
  3268     023B  2A3E               	goto	l210
  3269     023C                     l209:	
  3270                           ;main.c: 93:   else
  3271                           
  3272                           
  3273                           ;main.c: 94:   {;main.c: 95:     LATBbits.LATB2 = 0;
  3274     023C  0022               	movlb	2	; select bank2
  3275     023D  110D               	bcf	13,2	;volatile
  3276     023E                     l210:	
  3277                           ;main.c: 96:   }
  3278                           
  3279                           
  3280                           ;main.c: 98:   if (D3.turnLight_L == 1)
  3281     023E  0020               	movlb	0	; select bank0
  3282     023F  1EAE               	btfss	_D3,5
  3283     0240  2A42               	goto	u521
  3284     0241  2A43               	goto	u520
  3285     0242                     u521:
  3286     0242  2A46               	goto	l211
  3287     0243                     u520:
  3288     0243                     l1366:
  3289                           
  3290                           ;main.c: 99:   {;main.c: 100:     LATBbits.LATB1 = 1;
  3291     0243  0022               	movlb	2	; select bank2
  3292     0244  148D               	bsf	13,1	;volatile
  3293                           
  3294                           ;main.c: 101:   }
  3295     0245  2A48               	goto	l212
  3296     0246                     l211:	
  3297                           ;main.c: 102:   else
  3298                           
  3299                           
  3300                           ;main.c: 103:   {;main.c: 104:     LATBbits.LATB1 = 0;
  3301     0246  0022               	movlb	2	; select bank2
  3302     0247  108D               	bcf	13,1	;volatile
  3303     0248                     l212:	
  3304                           ;main.c: 105:   }
  3305                           
  3306                           
  3307                           ;main.c: 108:   if (D3.turnLight_R == 1)
  3308     0248  0020               	movlb	0	; select bank0
  3309     0249  1F2E               	btfss	_D3,6
  3310     024A  2A4C               	goto	u531
  3311     024B  2A4D               	goto	u530
  3312     024C                     u531:
  3313     024C  2A50               	goto	l213
  3314     024D                     u530:
  3315     024D                     l1368:
  3316                           
  3317                           ;main.c: 109:   {;main.c: 110:     LATBbits.LATB0 = 1;
  3318     024D  0022               	movlb	2	; select bank2
  3319     024E  140D               	bsf	13,0	;volatile
  3320                           
  3321                           ;main.c: 111:   }
  3322     024F  2A52               	goto	l1370
  3323     0250                     l213:	
  3324                           ;main.c: 112:   else
  3325                           
  3326                           
  3327                           ;main.c: 113:   {;main.c: 114:     LATBbits.LATB0 = 0;
  3328     0250  0022               	movlb	2	; select bank2
  3329     0251  100D               	bcf	13,0	;volatile
  3330     0252                     l1370:
  3331                           
  3332                           ;main.c: 117:   for (uint8_t i = 0; i < 11; i++)
  3333     0252  0020               	movlb	0	; select bank0
  3334     0253  01C2               	clrf	LED_output@i
  3335     0254                     l1376:
  3336                           
  3337                           ;main.c: 118:   {;main.c: 119:     rx_data.buf[i] = 0;
  3338     0254  0842               	movf	LED_output@i,w
  3339     0255  3E36               	addlw	(low (_rx_data| 0))& (0+255)
  3340     0256  0086               	movwf	6
  3341     0257  0187               	clrf	7
  3342     0258  0181               	clrf	1
  3343     0259                     l1378:
  3344                           
  3345                           ;main.c: 120:   }
  3346     0259  3001               	movlw	1
  3347     025A  00C1               	movwf	??_LED_output
  3348     025B  0841               	movf	??_LED_output,w
  3349     025C  07C2               	addwf	LED_output@i,f
  3350     025D                     l1380:
  3351     025D  300B               	movlw	11
  3352     025E  0242               	subwf	LED_output@i,w
  3353     025F  1C03               	skipc
  3354     0260  2A62               	goto	u541
  3355     0261  2A63               	goto	u540
  3356     0262                     u541:
  3357     0262  2A54               	goto	l1376
  3358     0263                     u540:
  3359     0263                     l202:
  3360     0263  0008               	return
  3361     0264                     __end_of_LED_output:
  3362                           
  3363                           	psect	text13
  3364     0330                     __ptext13:	
  3365 ;; *************** function _CheckSignalFail *****************
  3366 ;; Defined at:
  3367 ;;		line 224 in file "main.c"
  3368 ;; Parameters:    Size  Location     Type
  3369 ;;		None
  3370 ;; Auto vars:     Size  Location     Type
  3371 ;;		None
  3372 ;; Return value:  Size  Location     Type
  3373 ;;                  1    wreg      void 
  3374 ;; Registers used:
  3375 ;;		wreg, status,2, status,0
  3376 ;; Tracked objects:
  3377 ;;		On entry : 0/0
  3378 ;;		On exit  : 0/0
  3379 ;;		Unchanged: 0/0
  3380 ;; Data sizes:     COMMON   BANK0   BANK1   BANK2   BANK3   BANK4   BANK5   BANK6
  3381 ;;      Params:         0       0       0       0       0       0       0       0
  3382 ;;      Locals:         0       0       0       0       0       0       0       0
  3383 ;;      Temps:          0       0       0       0       0       0       0       0
  3384 ;;      Totals:         0       0       0       0       0       0       0       0
  3385 ;;Total ram usage:        0 bytes
  3386 ;; Hardware stack levels used: 1
  3387 ;; Hardware stack levels required when called: 4
  3388 ;; This function calls:
  3389 ;;		Nothing
  3390 ;; This function is called by:
  3391 ;;		_main
  3392 ;; This function uses a non-reentrant model
  3393 ;;
  3394                           
  3395     0330                     _CheckSignalFail:	
  3396                           ;psect for function _CheckSignalFail
  3397                           
  3398     0330                     l1468:	
  3399                           ;incstack = 0
  3400                           ; Regs used in _CheckSignalFail: [wreg+status,2+status,0]
  3401                           
  3402                           
  3403                           ;main.c: 226:   if (fSignalFail == 1)
  3404     0330  0020               	movlb	0	; select bank0
  3405     0331  032D               	decf	_fSignalFail,w
  3406     0332  1D03               	btfss	3,2
  3407     0333  2B35               	goto	u601
  3408     0334  2B36               	goto	u600
  3409     0335                     u601:
  3410     0335  2B3E               	goto	l251
  3411     0336                     u600:
  3412     0336                     l1470:
  3413                           
  3414                           ;main.c: 227:   {;main.c: 228:     fSignalFail = 0;
  3415     0336  01AD               	clrf	_fSignalFail
  3416     0337                     l1472:
  3417                           
  3418                           ;main.c: 230:     LATBbits.LATB5=1;
  3419     0337  0022               	movlb	2	; select bank2
  3420     0338  168D               	bsf	13,5	;volatile
  3421     0339                     l1474:
  3422                           
  3423                           ;main.c: 231:     LATBbits.LATB4=0;
  3424     0339  120D               	bcf	13,4	;volatile
  3425     033A                     l1476:
  3426                           
  3427                           ;main.c: 232:     LATBbits.LATB3=1;
  3428     033A  158D               	bsf	13,3	;volatile
  3429     033B                     l1478:
  3430                           
  3431                           ;main.c: 233:     LATBbits.LATB2=0;
  3432     033B  110D               	bcf	13,2	;volatile
  3433     033C                     l1480:
  3434                           
  3435                           ;main.c: 234:     LATBbits.LATB1=0;
  3436     033C  108D               	bcf	13,1	;volatile
  3437     033D                     l1482:
  3438                           
  3439                           ;main.c: 235:     LATBbits.LATB0=0;
  3440     033D  100D               	bcf	13,0	;volatile
  3441     033E                     l251:
  3442     033E  0008               	return
  3443     033F                     __end_of_CheckSignalFail:
  3444                           
  3445                           	psect	intentry
  3446     0004                     __pintentry:	
  3447 ;; *************** function _INTERRUPT_InterruptManager *****************
  3448 ;; Defined at:
  3449 ;;		line 52 in file "mcc_generated_files/interrupt_manager.c"
  3450 ;; Parameters:    Size  Location     Type
  3451 ;;		None
  3452 ;; Auto vars:     Size  Location     Type
  3453 ;;		None
  3454 ;; Return value:  Size  Location     Type
  3455 ;;                  1    wreg      void 
  3456 ;; Registers used:
  3457 ;;		wreg, status,2, status,0, pclath, cstack
  3458 ;; Tracked objects:
  3459 ;;		On entry : 0/0
  3460 ;;		On exit  : 0/0
  3461 ;;		Unchanged: 0/0
  3462 ;; Data sizes:     COMMON   BANK0   BANK1   BANK2   BANK3   BANK4   BANK5   BANK6
  3463 ;;      Params:         0       0       0       0       0       0       0       0
  3464 ;;      Locals:         0       0       0       0       0       0       0       0
  3465 ;;      Temps:          0       0       0       0       0       0       0       0
  3466 ;;      Totals:         0       0       0       0       0       0       0       0
  3467 ;;Total ram usage:        0 bytes
  3468 ;; Hardware stack levels used: 1
  3469 ;; Hardware stack levels required when called: 3
  3470 ;; This function calls:
  3471 ;;		_ECCP3_CaptureISR
  3472 ;;		_TMR0_ISR
  3473 ;; This function is called by:
  3474 ;;		Interrupt level 1
  3475 ;; This function uses a non-reentrant model
  3476 ;;
  3477                           
  3478     0004                     _INTERRUPT_InterruptManager:
  3479                           
  3480                           ;incstack = 0
  3481     0004  147E               	bsf	int$flags,0	;set compiler interrupt flag (level 1)
  3482                           
  3483                           ; Regs used in _INTERRUPT_InterruptManager: [wreg+status,2+status,0+pclath+cstack]
  3484     0005  3180               	pagesel	$
  3485     0006                     i1l1484:
  3486                           
  3487                           ;mcc_generated_files/interrupt_manager.c: 55:     if(INTCONbits.TMR0IE == 1 && INTCONbit
      +                          s.TMR0IF == 1)
  3488     0006  1E8B               	btfss	11,5	;volatile
  3489     0007  2809               	goto	u61_21
  3490     0008  280A               	goto	u61_20
  3491     0009                     u61_21:
  3492     0009  2812               	goto	i1l49
  3493     000A                     u61_20:
  3494     000A                     i1l1486:
  3495     000A  1D0B               	btfss	11,2	;volatile
  3496     000B  280D               	goto	u62_21
  3497     000C  280E               	goto	u62_20
  3498     000D                     u62_21:
  3499     000D  2812               	goto	i1l49
  3500     000E                     u62_20:
  3501     000E                     i1l1488:
  3502                           
  3503                           ;mcc_generated_files/interrupt_manager.c: 56:     {;mcc_generated_files/interrupt_manage
      +                          r.c: 57:         TMR0_ISR();
  3504     000E  3182  22DE  3180   	fcall	_TMR0_ISR
  3505                           
  3506                           ;mcc_generated_files/interrupt_manager.c: 58:     }
  3507     0011  2824               	goto	i1l55
  3508     0012                     i1l49:	
  3509                           ;mcc_generated_files/interrupt_manager.c: 59:     else if(INTCONbits.PEIE == 1)
  3510                           
  3511     0012  1F0B               	btfss	11,6	;volatile
  3512     0013  2815               	goto	u63_21
  3513     0014  2816               	goto	u63_20
  3514     0015                     u63_21:
  3515     0015  2824               	goto	i1l55
  3516     0016                     u63_20:
  3517     0016                     i1l1490:
  3518                           
  3519                           ;mcc_generated_files/interrupt_manager.c: 60:     {;mcc_generated_files/interrupt_manage
      +                          r.c: 61:         if(PIE3bits.CCP3IE == 1 && PIR3bits.CCP3IF == 1)
  3520     0016  0021               	movlb	1	; select bank1
  3521     0017  1E13               	btfss	19,4	;volatile
  3522     0018  281A               	goto	u64_21
  3523     0019  281B               	goto	u64_20
  3524     001A                     u64_21:
  3525     001A  2824               	goto	i1l54
  3526     001B                     u64_20:
  3527     001B                     i1l1492:
  3528     001B  0020               	movlb	0	; select bank0
  3529     001C  1E13               	btfss	19,4	;volatile
  3530     001D  281F               	goto	u65_21
  3531     001E  2820               	goto	u65_20
  3532     001F                     u65_21:
  3533     001F  2824               	goto	i1l54
  3534     0020                     u65_20:
  3535     0020                     i1l1494:
  3536                           
  3537                           ;mcc_generated_files/interrupt_manager.c: 62:         {;mcc_generated_files/interrupt_ma
      +                          nager.c: 63:             ECCP3_CaptureISR();
  3538     0020  3183  233F  3180   	fcall	_ECCP3_CaptureISR
  3539                           
  3540                           ;mcc_generated_files/interrupt_manager.c: 64:         }
  3541     0023  2824               	goto	i1l55
  3542     0024                     i1l54:	
  3543                           ;mcc_generated_files/interrupt_manager.c: 71:     {;mcc_generated_files/interrupt_manage
      +                          r.c: 73:     }
  3544                           
  3545     0024                     i1l55:
  3546     0024  107E               	bcf	int$flags,0	;clear compiler interrupt flag (level 1)
  3547     0025  0009               	retfie
  3548     0026                     __end_of_INTERRUPT_InterruptManager:
  3549                           
  3550                           	psect	text15
  3551     02DE                     __ptext15:	
  3552 ;; *************** function _TMR0_ISR *****************
  3553 ;; Defined at:
  3554 ;;		line 108 in file "mcc_generated_files/tmr0.c"
  3555 ;; Parameters:    Size  Location     Type
  3556 ;;		None
  3557 ;; Auto vars:     Size  Location     Type
  3558 ;;		None
  3559 ;; Return value:  Size  Location     Type
  3560 ;;                  1    wreg      void 
  3561 ;; Registers used:
  3562 ;;		wreg, status,2, status,0, pclath, cstack
  3563 ;; Tracked objects:
  3564 ;;		On entry : 0/0
  3565 ;;		On exit  : 0/0
  3566 ;;		Unchanged: 0/0
  3567 ;; Data sizes:     COMMON   BANK0   BANK1   BANK2   BANK3   BANK4   BANK5   BANK6
  3568 ;;      Params:         0       0       0       0       0       0       0       0
  3569 ;;      Locals:         0       0       0       0       0       0       0       0
  3570 ;;      Temps:          0       0       0       0       0       0       0       0
  3571 ;;      Totals:         0       0       0       0       0       0       0       0
  3572 ;;Total ram usage:        0 bytes
  3573 ;; Hardware stack levels used: 1
  3574 ;; Hardware stack levels required when called: 2
  3575 ;; This function calls:
  3576 ;;		_TMR0_CallBack
  3577 ;; This function is called by:
  3578 ;;		_INTERRUPT_InterruptManager
  3579 ;; This function uses a non-reentrant model
  3580 ;;
  3581                           
  3582     02DE                     _TMR0_ISR:	
  3583                           ;psect for function _TMR0_ISR
  3584                           
  3585     02DE                     i1l1340:	
  3586                           ;incstack = 0
  3587                           ; Regs used in _TMR0_ISR: [wreg+status,2+status,0+pclath+cstack]
  3588                           
  3589                           
  3590                           ;mcc_generated_files/tmr0.c: 110:     static volatile uint16_t CountCallBack = 0;;mcc_ge
      +                          nerated_files/tmr0.c: 113:     INTCONbits.TMR0IF = 0;
  3591     02DE  110B               	bcf	11,2	;volatile
  3592     02DF                     i1l1342:
  3593                           
  3594                           ;mcc_generated_files/tmr0.c: 115:     TMR0 = timer0ReloadVal;
  3595     02DF  0020               	movlb	0	; select bank0
  3596     02E0  0835               	movf	_timer0ReloadVal,w	;volatile
  3597     02E1  0095               	movwf	21	;volatile
  3598                           
  3599                           ;mcc_generated_files/tmr0.c: 118:     if (++CountCallBack >= 10)
  3600     02E2  3001               	movlw	1
  3601     02E3  07A4               	addwf	TMR0_ISR@CountCallBack,f	;volatile
  3602     02E4  3000               	movlw	0
  3603     02E5  3DA5               	addwfc	TMR0_ISR@CountCallBack+1,f	;volatile
  3604     02E6  3000               	movlw	0
  3605     02E7  0225               	subwf	TMR0_ISR@CountCallBack+1,w	;volatile
  3606     02E8  300A               	movlw	10
  3607     02E9  1903               	skipnz
  3608     02EA  0224               	subwf	TMR0_ISR@CountCallBack,w	;volatile
  3609     02EB  1C03               	skipc
  3610     02EC  2AEE               	goto	u46_21
  3611     02ED  2AEF               	goto	u46_20
  3612     02EE                     u46_21:
  3613     02EE  2AF5               	goto	i1l138
  3614     02EF                     u46_20:
  3615     02EF                     i1l1344:
  3616                           
  3617                           ;mcc_generated_files/tmr0.c: 119:     {;mcc_generated_files/tmr0.c: 121:         TMR0_Ca
      +                          llBack();
  3618     02EF  3183  235B  3182   	fcall	_TMR0_CallBack
  3619     02F2                     i1l1346:
  3620                           
  3621                           ;mcc_generated_files/tmr0.c: 124:         CountCallBack = 0;
  3622     02F2  0020               	movlb	0	; select bank0
  3623     02F3  01A4               	clrf	TMR0_ISR@CountCallBack	;volatile
  3624     02F4  01A5               	clrf	TMR0_ISR@CountCallBack+1	;volatile
  3625     02F5                     i1l138:
  3626     02F5  0008               	return
  3627     02F6                     __end_of_TMR0_ISR:
  3628                           
  3629                           	psect	text16
  3630     035B                     __ptext16:	
  3631 ;; *************** function _TMR0_CallBack *****************
  3632 ;; Defined at:
  3633 ;;		line 130 in file "mcc_generated_files/tmr0.c"
  3634 ;; Parameters:    Size  Location     Type
  3635 ;;		None
  3636 ;; Auto vars:     Size  Location     Type
  3637 ;;		None
  3638 ;; Return value:  Size  Location     Type
  3639 ;;                  1    wreg      void 
  3640 ;; Registers used:
  3641 ;;		wreg, status,2, status,0, pclath, cstack
  3642 ;; Tracked objects:
  3643 ;;		On entry : 0/0
  3644 ;;		On exit  : 0/0
  3645 ;;		Unchanged: 0/0
  3646 ;; Data sizes:     COMMON   BANK0   BANK1   BANK2   BANK3   BANK4   BANK5   BANK6
  3647 ;;      Params:         0       0       0       0       0       0       0       0
  3648 ;;      Locals:         0       0       0       0       0       0       0       0
  3649 ;;      Temps:          0       0       0       0       0       0       0       0
  3650 ;;      Totals:         0       0       0       0       0       0       0       0
  3651 ;;Total ram usage:        0 bytes
  3652 ;; Hardware stack levels used: 1
  3653 ;; Hardware stack levels required when called: 1
  3654 ;; This function calls:
  3655 ;;		NULL
  3656 ;;		_TMR0_DefaultInterruptHandler
  3657 ;;		_TMR0_EvenHandler
  3658 ;; This function is called by:
  3659 ;;		_TMR0_ISR
  3660 ;; This function uses a non-reentrant model
  3661 ;;
  3662                           
  3663     035B                     _TMR0_CallBack:	
  3664                           ;psect for function _TMR0_CallBack
  3665                           
  3666     035B                     i1l1268:	
  3667                           ;incstack = 0
  3668                           ; Regs used in _TMR0_CallBack: [wreg+status,2+status,0+pclath+cstack]
  3669                           
  3670                           
  3671                           ;mcc_generated_files/tmr0.c: 134:     if(TMR0_InterruptHandler)
  3672     035B  0020               	movlb	0	; select bank0
  3673     035C  0826               	movf	_TMR0_InterruptHandler,w
  3674     035D  0427               	iorwf	_TMR0_InterruptHandler+1,w
  3675     035E  1903               	btfsc	3,2
  3676     035F  2B61               	goto	u34_21
  3677     0360  2B62               	goto	u34_20
  3678     0361                     u34_21:
  3679     0361  2B67               	goto	i1l142
  3680     0362                     u34_20:
  3681     0362                     i1l1270:
  3682                           
  3683                           ;mcc_generated_files/tmr0.c: 135:     {;mcc_generated_files/tmr0.c: 136:         TMR0_In
      +                          terruptHandler();
  3684     0362  0827               	movf	_TMR0_InterruptHandler+1,w
  3685     0363  008A               	movwf	10
  3686     0364  0826               	movf	_TMR0_InterruptHandler,w
  3687     0365  000A               	callw
  3688     0366  3183               	pagesel	$
  3689     0367                     i1l142:
  3690     0367  0008               	return
  3691     0368                     __end_of_TMR0_CallBack:
  3692                           
  3693                           	psect	text17
  3694     038E                     __ptext17:	
  3695 ;; *************** function _TMR0_DefaultInterruptHandler *****************
  3696 ;; Defined at:
  3697 ;;		line 144 in file "mcc_generated_files/tmr0.c"
  3698 ;; Parameters:    Size  Location     Type
  3699 ;;		None
  3700 ;; Auto vars:     Size  Location     Type
  3701 ;;		None
  3702 ;; Return value:  Size  Location     Type
  3703 ;;                  1    wreg      void 
  3704 ;; Registers used:
  3705 ;;		None
  3706 ;; Tracked objects:
  3707 ;;		On entry : 0/0
  3708 ;;		On exit  : 0/0
  3709 ;;		Unchanged: 0/0
  3710 ;; Data sizes:     COMMON   BANK0   BANK1   BANK2   BANK3   BANK4   BANK5   BANK6
  3711 ;;      Params:         0       0       0       0       0       0       0       0
  3712 ;;      Locals:         0       0       0       0       0       0       0       0
  3713 ;;      Temps:          0       0       0       0       0       0       0       0
  3714 ;;      Totals:         0       0       0       0       0       0       0       0
  3715 ;;Total ram usage:        0 bytes
  3716 ;; Hardware stack levels used: 1
  3717 ;; This function calls:
  3718 ;;		Nothing
  3719 ;; This function is called by:
  3720 ;;		_TMR0_Initialize
  3721 ;;		_TMR0_CallBack
  3722 ;; This function uses a non-reentrant model
  3723 ;;
  3724                           
  3725     038E                     _TMR0_DefaultInterruptHandler:	
  3726                           ;psect for function _TMR0_DefaultInterruptHandler
  3727                           
  3728     038E                     i1l148:	
  3729                           ;incstack = 0
  3730                           ; Regs used in _TMR0_DefaultInterruptHandler: []
  3731                           
  3732     038E  0008               	return
  3733     038F                     __end_of_TMR0_DefaultInterruptHandler:
  3734                           
  3735                           	psect	text18
  3736     031D                     __ptext18:	
  3737 ;; *************** function _TMR0_EvenHandler *****************
  3738 ;; Defined at:
  3739 ;;		line 214 in file "main.c"
  3740 ;; Parameters:    Size  Location     Type
  3741 ;;		None
  3742 ;; Auto vars:     Size  Location     Type
  3743 ;;		None
  3744 ;; Return value:  Size  Location     Type
  3745 ;;                  1    wreg      void 
  3746 ;; Registers used:
  3747 ;;		wreg, status,2
  3748 ;; Tracked objects:
  3749 ;;		On entry : 0/0
  3750 ;;		On exit  : 0/0
  3751 ;;		Unchanged: 0/0
  3752 ;; Data sizes:     COMMON   BANK0   BANK1   BANK2   BANK3   BANK4   BANK5   BANK6
  3753 ;;      Params:         0       0       0       0       0       0       0       0
  3754 ;;      Locals:         0       0       0       0       0       0       0       0
  3755 ;;      Temps:          0       0       0       0       0       0       0       0
  3756 ;;      Totals:         0       0       0       0       0       0       0       0
  3757 ;;Total ram usage:        0 bytes
  3758 ;; Hardware stack levels used: 1
  3759 ;; This function calls:
  3760 ;;		Nothing
  3761 ;; This function is called by:
  3762 ;;		_main
  3763 ;;		_TMR0_CallBack
  3764 ;; This function uses a non-reentrant model
  3765 ;;
  3766                           
  3767     031D                     _TMR0_EvenHandler:	
  3768                           ;psect for function _TMR0_EvenHandler
  3769                           
  3770     031D                     i1l1204:	
  3771                           ;incstack = 0
  3772                           ; Regs used in _TMR0_EvenHandler: [wreg+status,2]
  3773                           
  3774                           
  3775                           ;main.c: 216:   T10MS_CNT++;
  3776     031D  3001               	movlw	1
  3777     031E  0020               	movlb	0	; select bank0
  3778     031F  07A2               	addwf	_T10MS_CNT,f
  3779     0320  3000               	movlw	0
  3780     0321  3DA3               	addwfc	_T10MS_CNT+1,f
  3781                           
  3782                           ;main.c: 217:   if (T10MS_CNT >= 200)
  3783     0322  3000               	movlw	0
  3784     0323  0223               	subwf	_T10MS_CNT+1,w
  3785     0324  30C8               	movlw	200
  3786     0325  1903               	skipnz
  3787     0326  0222               	subwf	_T10MS_CNT,w
  3788     0327  1C03               	skipc
  3789     0328  2B2A               	goto	u32_21
  3790     0329  2B2B               	goto	u32_20
  3791     032A                     u32_21:
  3792     032A  2B2F               	goto	i1l247
  3793     032B                     u32_20:
  3794     032B                     i1l1206:
  3795                           
  3796                           ;main.c: 218:   {;main.c: 219:     T10MS_CNT = 0;
  3797     032B  01A2               	clrf	_T10MS_CNT
  3798     032C  01A3               	clrf	_T10MS_CNT+1
  3799     032D                     i1l1208:
  3800                           
  3801                           ;main.c: 220:     fSignalFail = 1;
  3802     032D  01AD               	clrf	_fSignalFail
  3803     032E  0AAD               	incf	_fSignalFail,f
  3804     032F                     i1l247:
  3805     032F  0008               	return
  3806     0330                     __end_of_TMR0_EvenHandler:
  3807                           
  3808                           	psect	text19
  3809     033F                     __ptext19:	
  3810 ;; *************** function _ECCP3_CaptureISR *****************
  3811 ;; Defined at:
  3812 ;;		line 80 in file "mcc_generated_files/eccp3.c"
  3813 ;; Parameters:    Size  Location     Type
  3814 ;;		None
  3815 ;; Auto vars:     Size  Location     Type
  3816 ;;  module          2   11[COMMON] struct CCPR3Reg_tag
  3817 ;; Return value:  Size  Location     Type
  3818 ;;                  1    wreg      void 
  3819 ;; Registers used:
  3820 ;;		wreg, status,2, status,0, pclath, cstack
  3821 ;; Tracked objects:
  3822 ;;		On entry : 0/0
  3823 ;;		On exit  : 0/0
  3824 ;;		Unchanged: 0/0
  3825 ;; Data sizes:     COMMON   BANK0   BANK1   BANK2   BANK3   BANK4   BANK5   BANK6
  3826 ;;      Params:         0       0       0       0       0       0       0       0
  3827 ;;      Locals:         2       0       0       0       0       0       0       0
  3828 ;;      Temps:          0       0       0       0       0       0       0       0
  3829 ;;      Totals:         2       0       0       0       0       0       0       0
  3830 ;;Total ram usage:        2 bytes
  3831 ;; Hardware stack levels used: 1
  3832 ;; Hardware stack levels required when called: 1
  3833 ;; This function calls:
  3834 ;;		_ECCP3_CallBack
  3835 ;; This function is called by:
  3836 ;;		_INTERRUPT_InterruptManager
  3837 ;; This function uses a non-reentrant model
  3838 ;;
  3839                           
  3840     033F                     _ECCP3_CaptureISR:	
  3841                           ;psect for function _ECCP3_CaptureISR
  3842                           
  3843     033F                     i1l1348:	
  3844                           ;incstack = 0
  3845                           ; Regs used in _ECCP3_CaptureISR: [wreg+status,2+status,0+pclath+cstack]
  3846                           
  3847                           
  3848                           ;mcc_generated_files/eccp3.c: 82:     CCP3_PERIOD_REG_T module;;mcc_generated_files/eccp
      +                          3.c: 85:     PIR3bits.CCP3IF = 0;
  3849     033F  0020               	movlb	0	; select bank0
  3850     0340  1213               	bcf	19,4	;volatile
  3851     0341                     i1l1350:
  3852                           
  3853                           ;mcc_generated_files/eccp3.c: 88:     module.ccpr3l = CCPR3L;
  3854     0341  0026               	movlb	6	; select bank6
  3855     0342  0811               	movf	17,w	;volatile
  3856     0343  00FB               	movwf	ECCP3_CaptureISR@module
  3857                           
  3858                           ;mcc_generated_files/eccp3.c: 89:     module.ccpr3h = CCPR3H;
  3859     0344  0812               	movf	18,w	;volatile
  3860     0345  00FC               	movwf	ECCP3_CaptureISR@module+1
  3861     0346                     i1l1352:
  3862                           
  3863                           ;mcc_generated_files/eccp3.c: 92:     ECCP3_CallBack(module.ccpr3_16Bit);
  3864     0346  087C               	movf	ECCP3_CaptureISR@module+1,w
  3865     0347  00F1               	movwf	ECCP3_CallBack@capturedValue+1
  3866     0348  087B               	movf	ECCP3_CaptureISR@module,w
  3867     0349  00F0               	movwf	ECCP3_CallBack@capturedValue
  3868     034A  3181  2135  3183   	fcall	_ECCP3_CallBack
  3869     034D                     i1l166:
  3870     034D  0008               	return
  3871     034E                     __end_of_ECCP3_CaptureISR:
  3872                           
  3873                           	psect	text20
  3874     0135                     __ptext20:	
  3875 ;; *************** function _ECCP3_CallBack *****************
  3876 ;; Defined at:
  3877 ;;		line 16 in file "Receiver_PWM.c"
  3878 ;; Parameters:    Size  Location     Type
  3879 ;;  capturedValu    2    0[COMMON] unsigned short 
  3880 ;; Auto vars:     Size  Location     Type
  3881 ;;  now             2    9[COMMON] unsigned short 
  3882 ;;  width           2    6[COMMON] unsigned short 
  3883 ;;  pluse_width_    2    4[COMMON] unsigned short 
  3884 ;;  data_bit        1    8[COMMON] _Bool 
  3885 ;; Return value:  Size  Location     Type
  3886 ;;                  1    wreg      void 
  3887 ;; Registers used:
  3888 ;;		wreg, status,2, status,0
  3889 ;; Tracked objects:
  3890 ;;		On entry : 0/0
  3891 ;;		On exit  : 0/0
  3892 ;;		Unchanged: 0/0
  3893 ;; Data sizes:     COMMON   BANK0   BANK1   BANK2   BANK3   BANK4   BANK5   BANK6
  3894 ;;      Params:         2       0       0       0       0       0       0       0
  3895 ;;      Locals:         7       0       0       0       0       0       0       0
  3896 ;;      Temps:          2       0       0       0       0       0       0       0
  3897 ;;      Totals:        11       0       0       0       0       0       0       0
  3898 ;;Total ram usage:       11 bytes
  3899 ;; Hardware stack levels used: 1
  3900 ;; This function calls:
  3901 ;;		Nothing
  3902 ;; This function is called by:
  3903 ;;		_ECCP3_CaptureISR
  3904 ;; This function uses a non-reentrant model
  3905 ;;
  3906                           
  3907     0135                     _ECCP3_CallBack:	
  3908                           ;psect for function _ECCP3_CallBack
  3909                           
  3910     0135                     i1l1272:	
  3911                           ;incstack = 0
  3912                           ; Regs used in _ECCP3_CallBack: [wreg+status,2+status,0]
  3913                           
  3914                           
  3915                           ;Receiver_PWM.c: 19:     static uint8_t state = 0;;Receiver_PWM.c: 20:     static uint8_
      +                          t bit_index = 0;;Receiver_PWM.c: 21:     _Bool data_bit = 0;
  3916     0135  01F8               	clrf	ECCP3_CallBack@data_bit
  3917                           
  3918                           ;Receiver_PWM.c: 23:     static _Bool fEdge_falling_get = 0;;Receiver_PWM.c: 24:     uin
      +                          t16_t width = 0;
  3919     0136  01F6               	clrf	ECCP3_CallBack@width
  3920     0137  01F7               	clrf	ECCP3_CallBack@width+1
  3921                           
  3922                           ;Receiver_PWM.c: 25:     uint16_t now = 0;
  3923     0138  01F9               	clrf	ECCP3_CallBack@now
  3924     0139  01FA               	clrf	ECCP3_CallBack@now+1
  3925     013A                     i1l1274:
  3926                           
  3927                           ;Receiver_PWM.c: 26:     static uint16_t last_capture = 0;;Receiver_PWM.c: 28:     now =
      +                           capturedValue;
  3928     013A  0871               	movf	ECCP3_CallBack@capturedValue+1,w
  3929     013B  00FA               	movwf	ECCP3_CallBack@now+1
  3930     013C  0870               	movf	ECCP3_CallBack@capturedValue,w
  3931     013D  00F9               	movwf	ECCP3_CallBack@now
  3932     013E                     i1l1276:
  3933                           
  3934                           ;Receiver_PWM.c: 29:     if (fEdge_falling_get == 0)
  3935     013E  0020               	movlb	0	; select bank0
  3936     013F  082A               	movf	ECCP3_CallBack@fEdge_falling_get,w
  3937     0140  1D03               	btfss	3,2
  3938     0141  2943               	goto	u35_21
  3939     0142  2944               	goto	u35_20
  3940     0143                     u35_21:
  3941     0143  294F               	goto	i1l1282
  3942     0144                     u35_20:
  3943     0144                     i1l1278:
  3944                           
  3945                           ;Receiver_PWM.c: 30:     {;Receiver_PWM.c: 31:         last_capture = now;
  3946     0144  087A               	movf	ECCP3_CallBack@now+1,w
  3947     0145  00A1               	movwf	ECCP3_CallBack@last_capture+1
  3948     0146  0879               	movf	ECCP3_CallBack@now,w
  3949     0147  00A0               	movwf	ECCP3_CallBack@last_capture
  3950                           
  3951                           ;Receiver_PWM.c: 32:         CCP3CON = 0x05;
  3952     0148  3005               	movlw	5
  3953     0149  0026               	movlb	6	; select bank6
  3954     014A  0093               	movwf	19	;volatile
  3955     014B                     i1l1280:
  3956                           
  3957                           ;Receiver_PWM.c: 33:         fEdge_falling_get = 1;
  3958     014B  0020               	movlb	0	; select bank0
  3959     014C  01AA               	clrf	ECCP3_CallBack@fEdge_falling_get
  3960     014D  0AAA               	incf	ECCP3_CallBack@fEdge_falling_get,f
  3961                           
  3962                           ;Receiver_PWM.c: 34:     }
  3963     014E  29BB               	goto	i1l302
  3964     014F                     i1l1282:
  3965     014F                     i1l1284:
  3966                           
  3967                           ;Receiver_PWM.c: 39:         {;Receiver_PWM.c: 40:             width = now - last_captur
      +                          e;
  3968     014F  0820               	movf	ECCP3_CallBack@last_capture,w
  3969     0150  0279               	subwf	ECCP3_CallBack@now,w
  3970     0151  00F6               	movwf	ECCP3_CallBack@width
  3971     0152  0821               	movf	ECCP3_CallBack@last_capture+1,w
  3972     0153  3B7A               	subwfb	ECCP3_CallBack@now+1,w
  3973     0154  00F7               	movwf	ECCP3_CallBack@width+1
  3974     0155                     i1l289:	
  3975                           ;Receiver_PWM.c: 45:         }
  3976                           
  3977                           
  3978                           ;Receiver_PWM.c: 47:         pluse_width_LO = width >> 3;
  3979     0155  0877               	movf	ECCP3_CallBack@width+1,w
  3980     0156  00F3               	movwf	??_ECCP3_CallBack+1
  3981     0157  0876               	movf	ECCP3_CallBack@width,w
  3982     0158  00F2               	movwf	??_ECCP3_CallBack
  3983     0159  36F3               	lsrf	??_ECCP3_CallBack+1,f
  3984     015A  0CF2               	rrf	??_ECCP3_CallBack,f
  3985     015B  36F3               	lsrf	??_ECCP3_CallBack+1,f
  3986     015C  0CF2               	rrf	??_ECCP3_CallBack,f
  3987     015D  36F3               	lsrf	??_ECCP3_CallBack+1,f
  3988     015E  0CF2               	rrf	??_ECCP3_CallBack,f
  3989     015F  0872               	movf	??_ECCP3_CallBack,w
  3990     0160  00F4               	movwf	ECCP3_CallBack@pluse_width_LO
  3991     0161  0873               	movf	??_ECCP3_CallBack+1,w
  3992     0162  00F5               	movwf	ECCP3_CallBack@pluse_width_LO+1
  3993     0163                     i1l1288:
  3994                           
  3995                           ;Receiver_PWM.c: 48:         CCP3CON = 0x04;
  3996     0163  3004               	movlw	4
  3997     0164  0026               	movlb	6	; select bank6
  3998     0165  0093               	movwf	19	;volatile
  3999     0166                     i1l1290:
  4000                           
  4001                           ;Receiver_PWM.c: 49:         fEdge_falling_get = 0;
  4002     0166  0020               	movlb	0	; select bank0
  4003     0167  01AA               	clrf	ECCP3_CallBack@fEdge_falling_get
  4004     0168                     i1l1292:
  4005                           
  4006                           ;Receiver_PWM.c: 52:         if (pluse_width_LO < (21))
  4007     0168  3000               	movlw	0
  4008     0169  0275               	subwf	ECCP3_CallBack@pluse_width_LO+1,w
  4009     016A  3015               	movlw	21
  4010     016B  1903               	skipnz
  4011     016C  0274               	subwf	ECCP3_CallBack@pluse_width_LO,w
  4012     016D  1803               	skipnc
  4013     016E  2970               	goto	u36_21
  4014     016F  2971               	goto	u36_20
  4015     0170                     u36_21:
  4016     0170  2976               	goto	i1l290
  4017     0171                     u36_20:
  4018     0171                     i1l1294:
  4019                           
  4020                           ;Receiver_PWM.c: 53:         {;Receiver_PWM.c: 54:             LATBbits.LATB6 = 1;
  4021     0171  0022               	movlb	2	; select bank2
  4022     0172  170D               	bsf	13,6	;volatile
  4023                           
  4024                           ;Receiver_PWM.c: 55:             data_bit = 1;
  4025     0173  01F8               	clrf	ECCP3_CallBack@data_bit
  4026     0174  0AF8               	incf	ECCP3_CallBack@data_bit,f
  4027                           
  4028                           ;Receiver_PWM.c: 56:         }
  4029     0175  2979               	goto	i1l1298
  4030     0176                     i1l290:	
  4031                           ;Receiver_PWM.c: 57:         else
  4032                           
  4033                           
  4034                           ;Receiver_PWM.c: 58:         {;Receiver_PWM.c: 59:             LATBbits.LATB6 = 0;
  4035     0176  0022               	movlb	2	; select bank2
  4036     0177  130D               	bcf	13,6	;volatile
  4037     0178                     i1l1296:
  4038                           
  4039                           ;Receiver_PWM.c: 60:             data_bit = 0;
  4040     0178  01F8               	clrf	ECCP3_CallBack@data_bit
  4041     0179                     i1l1298:
  4042                           
  4043                           ;Receiver_PWM.c: 63:         if (state == 0)
  4044     0179  0020               	movlb	0	; select bank0
  4045     017A  082C               	movf	ECCP3_CallBack@state,w
  4046     017B  1D03               	btfss	3,2
  4047     017C  297E               	goto	u37_21
  4048     017D  297F               	goto	u37_20
  4049     017E                     u37_21:
  4050     017E  2989               	goto	i1l1306
  4051     017F                     u37_20:
  4052     017F                     i1l1300:
  4053                           
  4054                           ;Receiver_PWM.c: 64:         {;Receiver_PWM.c: 66:             if (data_bit == 0)
  4055     017F  0878               	movf	ECCP3_CallBack@data_bit,w
  4056     0180  1D03               	btfss	3,2
  4057     0181  2983               	goto	u38_21
  4058     0182  2984               	goto	u38_20
  4059     0183                     u38_21:
  4060     0183  29BB               	goto	i1l302
  4061     0184                     u38_20:
  4062     0184                     i1l1302:
  4063                           
  4064                           ;Receiver_PWM.c: 67:             {;Receiver_PWM.c: 68:                 state = 1;
  4065     0184  01AC               	clrf	ECCP3_CallBack@state
  4066     0185  0AAC               	incf	ECCP3_CallBack@state,f
  4067     0186                     i1l1304:
  4068                           
  4069                           ;Receiver_PWM.c: 69:                 bit_index = 0;
  4070     0186  01AB               	clrf	ECCP3_CallBack@bit_index
  4071                           
  4072                           ;Receiver_PWM.c: 70:                 rx_buf = 0;
  4073     0187  01FD               	clrf	_rx_buf
  4074     0188  29BB               	goto	i1l302
  4075     0189                     i1l1306:
  4076     0189  032C               	decf	ECCP3_CallBack@state,w
  4077     018A  1D03               	btfss	3,2
  4078     018B  298D               	goto	u39_21
  4079     018C  298E               	goto	u39_20
  4080     018D                     u39_21:
  4081     018D  29AC               	goto	i1l1318
  4082     018E                     u39_20:
  4083     018E                     i1l1308:
  4084                           
  4085                           ;Receiver_PWM.c: 74:         {;Receiver_PWM.c: 76:             if (data_bit == 0)
  4086     018E  0878               	movf	ECCP3_CallBack@data_bit,w
  4087     018F  1D03               	btfss	3,2
  4088     0190  2992               	goto	u40_21
  4089     0191  2993               	goto	u40_20
  4090     0192                     u40_21:
  4091     0192  2994               	goto	i1l1312
  4092     0193                     u40_20:
  4093     0193  299F               	goto	i1l297
  4094     0194                     i1l1312:
  4095                           
  4096                           ;Receiver_PWM.c: 82:             {;Receiver_PWM.c: 84:                 rx_buf |= (1 << b
      +                          it_index);
  4097     0194  3001               	movlw	1
  4098     0195  00F2               	movwf	??_ECCP3_CallBack
  4099     0196  0A2B               	incf	ECCP3_CallBack@bit_index,w
  4100     0197  2999               	goto	u41_24
  4101     0198                     u41_25:
  4102     0198  35F2               	lslf	??_ECCP3_CallBack,f
  4103     0199                     u41_24:
  4104     0199  0B89               	decfsz	9,f
  4105     019A  2998               	goto	u41_25
  4106     019B  0872               	movf	??_ECCP3_CallBack,w
  4107     019C  00F3               	movwf	??_ECCP3_CallBack+1
  4108     019D  0873               	movf	??_ECCP3_CallBack+1,w
  4109     019E  04FD               	iorwf	_rx_buf,f
  4110     019F                     i1l297:	
  4111                           ;Receiver_PWM.c: 85:             }
  4112                           
  4113                           
  4114                           ;Receiver_PWM.c: 87:             bit_index++;
  4115     019F  3001               	movlw	1
  4116     01A0  00F2               	movwf	??_ECCP3_CallBack
  4117     01A1  0872               	movf	??_ECCP3_CallBack,w
  4118     01A2  07AB               	addwf	ECCP3_CallBack@bit_index,f
  4119     01A3                     i1l1314:
  4120                           
  4121                           ;Receiver_PWM.c: 88:             if (bit_index > 7)
  4122     01A3  3008               	movlw	8
  4123     01A4  022B               	subwf	ECCP3_CallBack@bit_index,w
  4124     01A5  1C03               	skipc
  4125     01A6  29A8               	goto	u42_21
  4126     01A7  29A9               	goto	u42_20
  4127     01A8                     u42_21:
  4128     01A8  29BB               	goto	i1l294
  4129     01A9                     u42_20:
  4130     01A9                     i1l1316:
  4131                           
  4132                           ;Receiver_PWM.c: 89:             {;Receiver_PWM.c: 90:                 state = 2;
  4133     01A9  3002               	movlw	2
  4134     01AA  00AC               	movwf	ECCP3_CallBack@state
  4135     01AB  29BB               	goto	i1l302
  4136     01AC                     i1l1318:
  4137     01AC  3002               	movlw	2
  4138     01AD  062C               	xorwf	ECCP3_CallBack@state,w
  4139     01AE  1D03               	btfss	3,2
  4140     01AF  29B1               	goto	u43_21
  4141     01B0  29B2               	goto	u43_20
  4142     01B1                     u43_21:
  4143     01B1  29BB               	goto	i1l294
  4144     01B2                     u43_20:
  4145     01B2                     i1l1320:
  4146                           
  4147                           ;Receiver_PWM.c: 94:         {;Receiver_PWM.c: 96:             if (data_bit == 1)
  4148     01B2  0378               	decf	ECCP3_CallBack@data_bit,w
  4149     01B3  1D03               	btfss	3,2
  4150     01B4  29B6               	goto	u44_21
  4151     01B5  29B7               	goto	u44_20
  4152     01B6                     u44_21:
  4153     01B6  29B9               	goto	i1l1324
  4154     01B7                     u44_20:
  4155     01B7                     i1l1322:
  4156                           
  4157                           ;Receiver_PWM.c: 97:             {;Receiver_PWM.c: 98:                 byte_ready = 1;
  4158     01B7  01B4               	clrf	_byte_ready
  4159     01B8  0AB4               	incf	_byte_ready,f
  4160     01B9                     i1l1324:
  4161                           
  4162                           ;Receiver_PWM.c: 100:             state = 0;
  4163     01B9  01AC               	clrf	ECCP3_CallBack@state
  4164     01BA  29BB               	goto	i1l302
  4165     01BB                     i1l294:
  4166     01BB                     i1l302:
  4167     01BB  0008               	return
  4168     01BC                     __end_of_ECCP3_CallBack:
  4169     007E                     btemp	set	126	;btemp
  4170     007E                     int$flags	set	126
  4171     007E                     wtemp0	set	126
  4172                           
  4173                           	psect	config
  4174                           
  4175                           ;Config register CONFIG1 @ 0x8007
  4176                           ;	Oscillator Selection
  4177                           ;	FOSC = INTOSC, INTOSC oscillator: I/O function on CLKIN pin
  4178                           ;	Watchdog Timer Enable
  4179                           ;	WDTE = OFF, WDT disabled
  4180                           ;	Power-up Timer Enable
  4181                           ;	PWRTE = OFF, PWRT disabled
  4182                           ;	MCLR Pin Function Select
  4183                           ;	MCLRE = ON, MCLR/VPP pin function is MCLR
  4184                           ;	Flash Program Memory Code Protection
  4185                           ;	CP = OFF, Program memory code protection is disabled
  4186                           ;	Data Memory Code Protection
  4187                           ;	CPD = OFF, Data memory code protection is disabled
  4188                           ;	Brown-out Reset Enable
  4189                           ;	BOREN = ON, Brown-out Reset enabled
  4190                           ;	Clock Out Enable
  4191                           ;	CLKOUTEN = OFF, CLKOUT function is disabled. I/O or oscillator function on the CLKOUT 
      +                          pin
  4192                           ;	Internal/External Switchover
  4193                           ;	IESO = ON, Internal/External Switchover mode is enabled
  4194                           ;	Fail-Safe Clock Monitor Enable
  4195                           ;	FCMEN = ON, Fail-Safe Clock Monitor is enabled
  4196     8007                     	org	32775
  4197     8007  3FE4               	dw	16356
  4198                           
  4199                           ;Config register CONFIG2 @ 0x8008
  4200                           ;	Flash Memory Self-Write Protection
  4201                           ;	WRT = OFF, Write protection off
  4202                           ;	Voltage Regulator Capacitor Enable
  4203                           ;	VCAPEN = OFF, All VCAP pin functionality is disabled
  4204                           ;	PLL Enable
  4205                           ;	PLLEN = ON, 4x PLL enabled
  4206                           ;	Stack Overflow/Underflow Reset Enable
  4207                           ;	STVREN = ON, Stack Overflow or Underflow will cause a Reset
  4208                           ;	Brown-out Reset Voltage Selection
  4209                           ;	BORV = LO, Brown-out Reset Voltage (Vbor), low trip point selected.
  4210                           ;	Low-Voltage Programming Enable
  4211                           ;	LVP = OFF, High-voltage on MCLR/VPP must be used for programming
  4212     8008                     	org	32776
  4213     8008  1FFF               	dw	8191

Data Sizes:
    Strings     0
    Constant    256
    Data        0
    BSS         34
    Persistent  32
    Stack       0

Auto Spaces:
    Space          Size  Autos    Used
    COMMON           14     13      14
    BANK0            80      5      38
    BANK1            80      0       0
    BANK2            80      0       0
    BANK3            80      0       0
    BANK4            80      0       0
    BANK5            80      0       0
    BANK6            16      0       0

Pointer List with Targets:

    calculate_crc8@data	PTR const unsigned char  size(1) Largest target is 11
		 -> rx_data(BANK0[11]), rx_data$data(BANK0[8]), 

    TMR0_InterruptHandler	PTR FTN()void  size(2) Largest target is 1
		 -> TMR0_DefaultInterruptHandler(), TMR0_EvenHandler(), NULL(), 

    TMR0_SetInterruptHandler@InterruptHandler	PTR FTN()void  size(2) Largest target is 1
		 -> TMR0_DefaultInterruptHandler(), TMR0_EvenHandler(), 


Critical Paths under _main in COMMON

    None.

Critical Paths under _INTERRUPT_InterruptManager in COMMON

    _INTERRUPT_InterruptManager->_ECCP3_CaptureISR
    _ECCP3_CaptureISR->_ECCP3_CallBack

Critical Paths under _main in BANK0

    _check_CRC8->_calculate_crc8
    _TMR0_Initialize->_TMR0_SetInterruptHandler

Critical Paths under _INTERRUPT_InterruptManager in BANK0

    None.

Critical Paths under _main in BANK1

    None.

Critical Paths under _INTERRUPT_InterruptManager in BANK1

    None.

Critical Paths under _main in BANK2

    None.

Critical Paths under _INTERRUPT_InterruptManager in BANK2

    None.

Critical Paths under _main in BANK3

    None.

Critical Paths under _INTERRUPT_InterruptManager in BANK3

    None.

Critical Paths under _main in BANK4

    None.

Critical Paths under _INTERRUPT_InterruptManager in BANK4

    None.

Critical Paths under _main in BANK5

    None.

Critical Paths under _INTERRUPT_InterruptManager in BANK5

    None.

Critical Paths under _main in BANK6

    None.

Critical Paths under _INTERRUPT_InterruptManager in BANK6

    None.

Call Graph Tables:

 ---------------------------------------------------------------------------------
 (Depth) Function   	        Calls       Base Space   Used Autos Params    Refs
 ---------------------------------------------------------------------------------
 (0) _main                                                 0     0      0     661
                    _CheckSignalFail
                         _LED_output
                 _Receiver_FrameData
                  _SYSTEM_Initialize
           _TMR0_SetInterruptHandler
                         _check_CRC8
 ---------------------------------------------------------------------------------
 (1) _check_CRC8                                           0     0      0     245
                     _calculate_crc8
 ---------------------------------------------------------------------------------
 (2) _calculate_crc8                                       5     4      1     245
                                              0 BANK0      5     4      1
 ---------------------------------------------------------------------------------
 (1) _SYSTEM_Initialize                                    0     0      0     174
                   _ECCP3_Initialize
              _OSCILLATOR_Initialize
             _PIN_MANAGER_Initialize
                    _TMR0_Initialize
                    _TMR1_Initialize
                     _WDT_Initialize
 ---------------------------------------------------------------------------------
 (2) _WDT_Initialize                                       0     0      0       0
 ---------------------------------------------------------------------------------
 (2) _TMR1_Initialize                                      0     0      0       0
 ---------------------------------------------------------------------------------
 (2) _TMR0_Initialize                                      0     0      0     174
           _TMR0_SetInterruptHandler
 ---------------------------------------------------------------------------------
 (1) _TMR0_SetInterruptHandler                             2     0      2     174
                                              0 BANK0      2     0      2
 ---------------------------------------------------------------------------------
 (2) _PIN_MANAGER_Initialize                               0     0      0       0
 ---------------------------------------------------------------------------------
 (2) _OSCILLATOR_Initialize                                0     0      0       0
 ---------------------------------------------------------------------------------
 (2) _ECCP3_Initialize                                     0     0      0       0
 ---------------------------------------------------------------------------------
 (1) _Receiver_FrameData                                   1     1      0       0
                                              0 BANK0      1     1      0
 ---------------------------------------------------------------------------------
 (1) _LED_output                                           2     2      0      68
                                              0 BANK0      2     2      0
 ---------------------------------------------------------------------------------
 (1) _CheckSignalFail                                      0     0      0       0
 ---------------------------------------------------------------------------------
 Estimated maximum stack depth 2
 ---------------------------------------------------------------------------------
 (Depth) Function   	        Calls       Base Space   Used Autos Params    Refs
 ---------------------------------------------------------------------------------
 (4) _INTERRUPT_InterruptManager                           0     0      0     353
                   _ECCP3_CaptureISR
                           _TMR0_ISR
 ---------------------------------------------------------------------------------
 (5) _TMR0_ISR                                             0     0      0       0
                      _TMR0_CallBack
 ---------------------------------------------------------------------------------
 (6) _TMR0_CallBack                                        0     0      0       0
                                NULL *
       _TMR0_DefaultInterruptHandler *
                   _TMR0_EvenHandler *
 ---------------------------------------------------------------------------------
 (7) _TMR0_EvenHandler                                     0     0      0       0
 ---------------------------------------------------------------------------------
 (7) _TMR0_DefaultInterruptHandler                         0     0      0       0
 ---------------------------------------------------------------------------------
 (7) NULL(Fake)                                            0     0      0       0
 ---------------------------------------------------------------------------------
 (5) _ECCP3_CaptureISR                                     2     2      0     353
                                             11 COMMON     2     2      0
                     _ECCP3_CallBack
 ---------------------------------------------------------------------------------
 (6) _ECCP3_CallBack                                      11     9      2     306
                                              0 COMMON    11     9      2
 ---------------------------------------------------------------------------------
 Estimated maximum stack depth 7
 ---------------------------------------------------------------------------------

 Call Graph Graphs:

 _main (ROOT)
   _CheckSignalFail
   _LED_output
   _Receiver_FrameData
   _SYSTEM_Initialize
     _ECCP3_Initialize
     _OSCILLATOR_Initialize
     _PIN_MANAGER_Initialize
     _TMR0_Initialize
       _TMR0_SetInterruptHandler
     _TMR1_Initialize
     _WDT_Initialize
   _TMR0_SetInterruptHandler
   _check_CRC8
     _calculate_crc8

 _INTERRUPT_InterruptManager (ROOT)
   _ECCP3_CaptureISR
     _ECCP3_CallBack
   _TMR0_ISR
     _TMR0_CallBack
       NULL(Fake) *
       _TMR0_DefaultInterruptHandler *
       _TMR0_EvenHandler *

 Address spaces:
Name               Size   Autos  Total    Cost      Usage
BIGRAM             1F0      0       0       0        0.0%
EEDATA             100      0       0       0        0.0%
NULL                 0      0       0       0        0.0%
CODE                 0      0       0       0        0.0%
BITCOMMON            E      0       0       1        0.0%
BITSFR0              0      0       0       1        0.0%
SFR0                 0      0       0       1        0.0%
COMMON               E      D       E       2      100.0%
BITSFR1              0      0       0       2        0.0%
SFR1                 0      0       0       2        0.0%
BITSFR2              0      0       0       3        0.0%
SFR2                 0      0       0       3        0.0%
STACK                0      0       0       3        0.0%
BITSFR3              0      0       0       4        0.0%
SFR3                 0      0       0       4        0.0%
ABS                  0      0      34       4        0.0%
BITBANK0            50      0       0       5        0.0%
BITSFR4              0      0       0       5        0.0%
SFR4                 0      0       0       5        0.0%
BANK0               50      5      26       6       47.5%
BITSFR5              0      0       0       6        0.0%
SFR5                 0      0       0       6        0.0%
BITBANK1            50      0       0       7        0.0%
BITSFR6              0      0       0       7        0.0%
SFR6                 0      0       0       7        0.0%
BANK1               50      0       0       8        0.0%
BITSFR7              0      0       0       8        0.0%
SFR7                 0      0       0       8        0.0%
BITBANK2            50      0       0       9        0.0%
BITSFR8              0      0       0       9        0.0%
SFR8                 0      0       0       9        0.0%
BANK2               50      0       0      10        0.0%
BITSFR9              0      0       0      10        0.0%
SFR9                 0      0       0      10        0.0%
BITBANK3            50      0       0      11        0.0%
BITSFR10             0      0       0      11        0.0%
SFR10                0      0       0      11        0.0%
BANK3               50      0       0      12        0.0%
BITSFR11             0      0       0      12        0.0%
SFR11                0      0       0      12        0.0%
BITBANK4            50      0       0      13        0.0%
BITSFR12             0      0       0      13        0.0%
SFR12                0      0       0      13        0.0%
BANK4               50      0       0      14        0.0%
BITSFR13             0      0       0      14        0.0%
SFR13                0      0       0      14        0.0%
BITBANK5            50      0       0      15        0.0%
BITSFR14             0      0       0      15        0.0%
SFR14                0      0       0      15        0.0%
BANK5               50      0       0      16        0.0%
BITSFR15             0      0       0      16        0.0%
SFR15                0      0       0      16        0.0%
BITBANK6            10      0       0      17        0.0%
BITSFR16             0      0       0      17        0.0%
SFR16                0      0       0      17        0.0%
BANK6               10      0       0      18        0.0%
BITSFR17             0      0       0      18        0.0%
SFR17                0      0       0      18        0.0%
BITSFR18             0      0       0      19        0.0%
SFR18                0      0       0      19        0.0%
DATA                 0      0      34      19        0.0%
BITSFR19             0      0       0      20        0.0%
SFR19                0      0       0      20        0.0%
BITSFR20             0      0       0      21        0.0%
SFR20                0      0       0      21        0.0%
BITSFR21             0      0       0      22        0.0%
SFR21                0      0       0      22        0.0%
BITSFR22             0      0       0      23        0.0%
SFR22                0      0       0      23        0.0%
BITSFR23             0      0       0      24        0.0%
SFR23                0      0       0      24        0.0%
BITSFR24             0      0       0      25        0.0%
SFR24                0      0       0      25        0.0%
BITSFR25             0      0       0      26        0.0%
SFR25                0      0       0      26        0.0%
BITSFR26             0      0       0      27        0.0%
SFR26                0      0       0      27        0.0%
BITSFR27             0      0       0      28        0.0%
SFR27                0      0       0      28        0.0%
BITSFR28             0      0       0      29        0.0%
SFR28                0      0       0      29        0.0%
BITSFR29             0      0       0      30        0.0%
SFR29                0      0       0      30        0.0%
BITSFR30             0      0       0      31        0.0%
SFR30                0      0       0      31        0.0%
BITSFR31             0      0       0      32        0.0%
SFR31                0      0       0      32        0.0%


Microchip Technology PIC Macro Assembler V2.46 build 20240104201356 
Symbol Table                                                                                   Thu May 14 13:12:06 2026

                                      _D2 002F                                        _D3 002E  
                                      l31 0373                                        l25 031C  
                                      l34 038D                                        l28 036E  
                                      l70 035A                         ECCP3_CallBack@now 0079  
                         _timer0ReloadVal 0035                                       l101 02DD  
                                     l201 0217                                       l210 023E  
                                     l202 0263                                       l211 0246  
                                     l203 021E                                       l123 0309  
                                     l212 0248                                       l204 0220  
                                     l220 0285                                       l213 0250  
                                     l205 0228                                       l221 027C  
                                     l206 022A                                       l207 0232  
                                     l208 0234                                       l209 023C  
                                     l225 020F                                       l145 0389  
                                     l251 033E                                       l163 037D  
                                     l267 02A7                                       u330 0373  
                                     u331 0372                                       u500 022F  
                                     u501 022E                                       u510 0239  
                                     u511 0238                                       u600 0336  
                                     u520 0243                                       u601 0335  
                                     u521 0242                                       u530 024D  
                                     u450 02A5                                       u531 024C  
                                     u451 02A4                                       u540 0263  
                                     u541 0262                                       u470 0216  
                                     u550 026A                                       u471 0215  
                                     u551 0269                                       u480 021B  
                                     u560 027B                                       u481 021A  
                                     u561 027A                                       u490 0225  
                                     u570 01C2                                       u491 0224  
                                     u571 01C1                                       u580 01CB  
                                     u581 01CA                                       u590 01DE  
                                     u591 01DD                           _timer1ReloadVal 0028  
                                     _crc 0031                                       wreg 0009  
                       ??_CheckSignalFail 0041                  __end_of_ECCP3_Initialize 037E  
                             ?_LED_output 0070                                      l1210 02C4  
                                    l1202 0384                                      l1220 02D4  
                                    l1212 02C9                                      l1230 0368  
                                    l1222 02D6                                      l1214 02CC  
                                    l1400 01BC                                      l1240 0377  
                                    l1232 036B                                      l1224 02D8  
                                    l1216 02CE                                      l1410 01D1  
                                    l1242 0378                                      l1234 036C  
                                    l1226 02D9                                      l1218 02D0  
                                    l1250 0351                                      l1330 029B  
                                    l1412 01D6                                      l1404 01C3  
                                    l1244 0379                                      l1228 02DB  
                                    l1260 02FE                                      l1252 0352  
                                    l1236 038A                                      l1332 029F  
                                    l1500 02B3                                      l1414 01D8  
                                    l1406 01C5                                      l1246 037B  
                                    l1238 0374                                      l1262 0300  
                                    l1254 0353                                      l1334 02A5  
                                    l1326 0288                                      l1510 02BE  
                                    l1502 02B4                                      l1360 0225  
                                    l1408 01CB                                      l1264 0301  
                                    l1256 02F6                                      l1248 034E  
                                    l1328 028B                                      l1504 02B5  
                                    l1370 0252                                      l1362 022F  
                                    l1354 0210                                      l1266 0302  
                                    l1258 02FB                                      l1338 030A  
                                    l1506 02B8                                      l1380 025D  
                                    l1364 0239                                      l1508 02BB  
                                    l1470 0336                                      l1366 0243  
                                    l1358 021B                                      l1454 01DF  
                                    l1390 0275                                      l1382 0264  
                                    l1480 033C                                      l1472 0337  
                                    l1376 0254                                      l1368 024D  
                                    l1456 01E5                                      l1482 033D  
                                    l1474 0339                                      l1378 0259  
                                    l1458 01E9                                      l1466 01EC  
                                    l1394 027E                                      l1386 026B  
                                    l1476 033A                                      l1468 0330  
                                    l1396 0281                                      l1388 026D  
                                    l1478 033B                                      l1398 0283  
                                    l1498 02A8                           ?_calculate_crc8 0041  
                                    _LATA 010C                                      _LATB 010D  
                                    _LATC 010E                                      _LATE 0110  
                                    i1l54 0024                                      i1l55 0024  
                                    i1l49 0012                                      _PLLR 04D6  
                                    _TMR0 0015                                      _WPUB 020D  
                                    _WPUE 0210                                      _main 02A8  
                                    fsr0h 0005                                      fsr1h 0007  
                                    indf0 0000                                      fsr0l 0004  
                                    indf1 0001                                      fsr1l 0006  
                                    _step 0032                                      btemp 007E  
                                    start 0026                       ECCP3_CallBack@width 0076  
                     ECCP3_CallBack@state 002C                   __end_of_TMR0_Initialize 030A  
          ??_TMR0_DefaultInterruptHandler 0070             __end_of_OSCILLATOR_Initialize 0374  
                                   ?_main 0070                                     _T1CON 0018  
                                   i1l302 01BB                                     i1l142 0367  
                                   i1l138 02F5                                     i1l148 038E  
                                   i1l166 034D                                     i1l247 032F  
                                   i1l290 0176                                     i1l294 01BB  
                                   i1l297 019F                                     i1l289 0155  
                __end_of_TMR0_EvenHandler 0330                                     u40_20 0193  
                                   u32_20 032B                                     u40_21 0192  
                                   u32_21 032A                                     _TMR1H 0017  
                                   u41_24 0199                                     u41_25 0198  
                                   _TMR1L 0016                                     u42_20 01A9  
                                   u34_20 0362                                     u42_21 01A8  
                                   u34_21 0361                                     u43_20 01B2  
                                   u35_20 0144                                     u43_21 01B1  
                                   u35_21 0143                                     u44_20 01B7  
                                   u36_20 0171                                     u44_21 01B6  
                                   u36_21 0170                                     u37_20 017F  
                                   u61_20 000A                                     u37_21 017E  
                                   u61_21 0009                                     u38_20 0184  
                                   u46_20 02EF                                     u62_20 000E  
                                   u38_21 0183                                     u46_21 02EE  
                                   u62_21 000D                                     u39_20 018E  
                                   u63_20 0016                                     u39_21 018D  
                                   u63_21 0015                                     u64_20 001B  
                                   u64_21 001A                                     u65_20 0020  
                                   u65_21 001F                                     _TRISA 008C  
                                   _TRISB 008D                                     _TRISC 008E  
                                   _TRISE 0090                 ?_TMR0_SetInterruptHandler 0041  
                        __end_of_TMR0_ISR 02F6                            _WDT_Initialize 038A  
                 __end_of_TMR1_Initialize 035B                                     pclath 000A  
                                   status 0003                                     wtemp0 007E  
            ECCP3_CallBack@pluse_width_LO 0074                           __initialization 0028  
                            __end_of_main 02C4               ?_INTERRUPT_InterruptManager 0070  
                                  ??_main 0046                    __end_of_WDT_Initialize 038E  
                                  _CCPR3H 0312                                    _CCPR3L 0311  
                                  _APFCON 011D                                    _ANSELA 018C  
                                  _ANSELB 018D                                    _BORCON 0116  
                                  _T1GCON 0019                                    i1l1300 017F  
                                  i1l1204 031D                                    i1l1302 0184  
                                  i1l1206 032B                                    i1l1320 01B2  
                                  i1l1312 0194                                    i1l1304 0186  
                                  i1l1208 032D                                    i1l1322 01B7  
                                  i1l1314 01A3                                    i1l1306 0189  
                                  i1l1324 01B9                                    i1l1316 01A9  
                                  i1l1308 018E                                    i1l1340 02DE  
                                  i1l1318 01AC                                    i1l1350 0341  
                                  i1l1270 0362                                    i1l1342 02DF  
                                  i1l1280 014B                                    i1l1272 0135  
                                  i1l1352 0346                                    i1l1344 02EF  
                                  i1l1290 0166                                    i1l1282 014F  
                                  i1l1274 013A                                    i1l1346 02F2  
                                  i1l1292 0168                                    i1l1284 014F  
                                  i1l1276 013E                                    i1l1348 033F  
                                  i1l1268 035B                                    i1l1294 0171  
                                  i1l1278 0144                                    i1l1296 0178  
                                  i1l1288 0163                                    i1l1298 0179  
                                  i1l1490 0016                                    i1l1492 001B  
                                  i1l1484 0006                                    i1l1494 0020  
                                  i1l1486 000A                                    i1l1488 000E  
              ECCP3_CallBack@last_capture 0020                                    _OSCCON 0099  
                                  _WDTCON 0097                               LED_output@i 0042  
                        ?_TMR0_Initialize 0070                                    _rx_buf 007D  
                       ?_ECCP3_CaptureISR 0070                           ?_WDT_Initialize 0070  
                      ??_ECCP3_CaptureISR 007B                     __end_of_TMR0_CallBack 0368  
TMR0_SetInterruptHandler@InterruptHandler 0041                          ?_TMR1_Initialize 0070  
                       _SYSTEM_Initialize 030A                   __end_of__initialization 0031  
                      ?_SYSTEM_Initialize 0070                            __pcstackCOMMON 0070  
                     ??_SYSTEM_Initialize 0043                                 ?_TMR0_ISR 0070  
                         _CheckSignalFail 0330                            _OPTION_REGbits 0095  
                   TMR0_ISR@CountCallBack 0024                          ??_calculate_crc8 0042  
                              _check_CRC8 0264                              ??_LED_output 0041  
               __end_of_SYSTEM_Initialize 031D                         ?_ECCP3_Initialize 0070  
                              __pbssBANK0 0020                        ??_ECCP3_Initialize 0041  
                              __pmaintext 02A8          __end_of_TMR0_SetInterruptHandler 038A  
                              ??_TMR0_ISR 0070                                __pintentry 0004  
                                 _CCP3CON 0313                        __end_of_LED_output 0264  
                       ?_TMR0_EvenHandler 0070                                   _OSCTUNE 0098  
                      ??_TMR0_EvenHandler 0070                                   _fCRC_OK 0030  
                 __end_of_CheckSignalFail 033F                                 _T10MS_CNT 0022  
                              _byte_ready 0034                            _ECCP3_CallBack 0135  
                                 __ptext1 0264                                   __ptext2 0286  
                                 __ptext3 030A                                   __ptext4 038A  
                                 __ptext5 034E                                   __ptext6 02F6  
                                 __ptext7 0384                                   __ptext8 02C4  
                                 __ptext9 0368           ECCP3_CallBack@fEdge_falling_get 002A  
                   _OSCILLATOR_Initialize 0368                    ECCP3_CaptureISR@module 007B  
                ??_PIN_MANAGER_Initialize 0041                                   _rx_data 0036  
                             ?_check_CRC8 0070                                   clrloop0 037F  
                    end_of_initialization 0031                    __end_of_ECCP3_CallBack 01BC  
                        _crc8_table_fixed 0035                    ECCP3_CallBack@data_bit 0078  
                        ??_WDT_Initialize 0041                  _TMR0_SetInterruptHandler 0384  
                             _fSignalFail 002D                          ?_CheckSignalFail 0070  
                         ?_ECCP3_CallBack 0070                    ?_OSCILLATOR_Initialize 0070  
                     start_initialization 0028                __end_of_Receiver_FrameData 0210  
                               _fFrame_OK 0033                               __pbssCOMMON 007D  
                               ___latbits 0002                             __pcstackBANK0 0041  
                   _TMR0_InterruptHandler 0026                    _PIN_MANAGER_Initialize 02C4  
            ??_INTERRUPT_InterruptManager 007D                              ??_check_CRC8 0046  
                           _TMR0_CallBack 035B                  __end_of_crc8_table_fixed 0135  
                       ??_TMR0_Initialize 0043                          _ECCP3_CaptureISR 033F  
                                _LATBbits 010D                                 clear_ram0 037E  
                                _PIE3bits 0093                ??_TMR0_SetInterruptHandler 0043  
                                _PIR1bits 0011                                  _PIR3bits 0013  
                                _TMR0_ISR 02DE                        __end_of_check_CRC8 0286  
                         calculate_crc8@i 0045                         ??_TMR1_Initialize 0041  
                          ?_TMR0_CallBack 0070                          ??_ECCP3_CallBack 0072  
                        _ECCP3_Initialize 0374                   ??_OSCILLATOR_Initialize 0041  
             ECCP3_CallBack@capturedValue 0070                                  __ptext10 0374  
                                __ptext11 01BC                                  __ptext20 0135  
                                __ptext12 0210                                  __ptext13 0330  
                                __ptext15 02DE                                  __ptext16 035B  
                                __ptext17 038E                                  __ptext18 031D  
                                __ptext19 033F                          _TMR0_EvenHandler 031D  
    __end_of_TMR0_DefaultInterruptHandler 038F              _TMR0_DefaultInterruptHandler 038E  
                      _Receiver_FrameData 01BC                                  int$flags 007E  
                     ?_Receiver_FrameData 0070        __end_of_INTERRUPT_InterruptManager 0026  
              _INTERRUPT_InterruptManager 0004                                _INTCONbits 000B  
                         ??_TMR0_CallBack 0070                                _LED_output 0210  
                    ??_Receiver_FrameData 0041                      calculate_crc8@length 0041  
                                intlevel1 0000                            _calculate_crc8 0286  
                 ?_PIN_MANAGER_Initialize 0070             ?_TMR0_DefaultInterruptHandler 0070  
                           __pstringtext1 0035                  __end_of_ECCP3_CaptureISR 034E  
                              _OPTION_REG 0095                           _TMR0_Initialize 02F6  
                 ECCP3_CallBack@bit_index 002B                    __end_of_calculate_crc8 02A8  
                      calculate_crc8@data 0043            __end_of_PIN_MANAGER_Initialize 02DE  
                       calculate_crc8@crc 0044                           _TMR1_Initialize 034E  
